
Proditor - ATSAMD11.elf:     file format elf32-littlearm

Sections:
Idx Name          Size      VMA       LMA       File off  Algn
  0 .text         000039bc  00000000  00000000  00010000  2**2
                  CONTENTS, ALLOC, LOAD, READONLY, CODE
  1 .relocate     000000d8  20000000  000039bc  00020000  2**2
                  CONTENTS, ALLOC, LOAD, DATA
  2 .bss          00000548  200000d8  00003a94  000200d8  2**2
                  ALLOC
  3 .stack        00000400  20000620  00003fdc  000200d8  2**0
                  ALLOC
  4 .ARM.attributes 00000028  00000000  00000000  000200d8  2**0
                  CONTENTS, READONLY
  5 .comment      00000059  00000000  00000000  00020100  2**0
                  CONTENTS, READONLY
  6 .debug_frame  000007f8  00000000  00000000  0002015c  2**2
                  CONTENTS, READONLY, DEBUGGING
  7 .stab         0000003c  00000000  00000000  00020954  2**2
                  CONTENTS, READONLY, DEBUGGING
  8 .stabstr      00000072  00000000  00000000  00020990  2**0
                  CONTENTS, READONLY, DEBUGGING

Disassembly of section .text:

00000000 <exception_table>:
       0:	20 0a 00 20 f1 00 00 00 ed 00 00 00 ed 00 00 00      .. ............
	...
      2c:	ed 00 00 00 00 00 00 00 00 00 00 00 ed 00 00 00     ................
      3c:	ed 00 00 00 ed 00 00 00 ed 00 00 00 ed 00 00 00     ................
      4c:	ed 00 00 00 ed 00 00 00 ed 00 00 00 ed 00 00 00     ................
      5c:	11 16 00 00 ed 00 00 00 ed 00 00 00 ed 00 00 00     ................
      6c:	ed 00 00 00 ed 00 00 00 ed 00 00 00 ed 00 00 00     ................
      7c:	ed 00 00 00 ed 00 00 00 ed 00 00 00 ed 00 00 00     ................

0000008c <__do_global_dtors_aux>:
      8c:	b510      	push	{r4, lr}
      8e:	4c06      	ldr	r4, [pc, #24]	; (a8 <__do_global_dtors_aux+0x1c>)
      90:	7823      	ldrb	r3, [r4, #0]
      92:	2b00      	cmp	r3, #0
      94:	d107      	bne.n	a6 <__do_global_dtors_aux+0x1a>
      96:	4b05      	ldr	r3, [pc, #20]	; (ac <__do_global_dtors_aux+0x20>)
      98:	2b00      	cmp	r3, #0
      9a:	d002      	beq.n	a2 <__do_global_dtors_aux+0x16>
      9c:	4804      	ldr	r0, [pc, #16]	; (b0 <__do_global_dtors_aux+0x24>)
      9e:	e000      	b.n	a2 <__do_global_dtors_aux+0x16>
      a0:	bf00      	nop
      a2:	2301      	movs	r3, #1
      a4:	7023      	strb	r3, [r4, #0]
      a6:	bd10      	pop	{r4, pc}
      a8:	200000d8 	.word	0x200000d8
      ac:	00000000 	.word	0x00000000
      b0:	000039bc 	.word	0x000039bc

000000b4 <frame_dummy>:
      b4:	4b08      	ldr	r3, [pc, #32]	; (d8 <frame_dummy+0x24>)
      b6:	b510      	push	{r4, lr}
      b8:	2b00      	cmp	r3, #0
      ba:	d003      	beq.n	c4 <frame_dummy+0x10>
      bc:	4907      	ldr	r1, [pc, #28]	; (dc <frame_dummy+0x28>)
      be:	4808      	ldr	r0, [pc, #32]	; (e0 <frame_dummy+0x2c>)
      c0:	e000      	b.n	c4 <frame_dummy+0x10>
      c2:	bf00      	nop
      c4:	4807      	ldr	r0, [pc, #28]	; (e4 <frame_dummy+0x30>)
      c6:	6803      	ldr	r3, [r0, #0]
      c8:	2b00      	cmp	r3, #0
      ca:	d100      	bne.n	ce <frame_dummy+0x1a>
      cc:	bd10      	pop	{r4, pc}
      ce:	4b06      	ldr	r3, [pc, #24]	; (e8 <frame_dummy+0x34>)
      d0:	2b00      	cmp	r3, #0
      d2:	d0fb      	beq.n	cc <frame_dummy+0x18>
      d4:	4798      	blx	r3
      d6:	e7f9      	b.n	cc <frame_dummy+0x18>
      d8:	00000000 	.word	0x00000000
      dc:	200000dc 	.word	0x200000dc
      e0:	000039bc 	.word	0x000039bc
      e4:	000039bc 	.word	0x000039bc
      e8:	00000000 	.word	0x00000000

000000ec <Dummy_Handler>:
      ec:	e7fe      	b.n	ec <Dummy_Handler>
	...

000000f0 <Reset_Handler>:
      f0:	4821      	ldr	r0, [pc, #132]	; (178 <Reset_Handler+0x88>)
      f2:	4922      	ldr	r1, [pc, #136]	; (17c <Reset_Handler+0x8c>)
      f4:	b570      	push	{r4, r5, r6, lr}
      f6:	4288      	cmp	r0, r1
      f8:	d004      	beq.n	104 <Reset_Handler+0x14>
      fa:	2300      	movs	r3, #0
      fc:	4c20      	ldr	r4, [pc, #128]	; (180 <Reset_Handler+0x90>)
      fe:	18ca      	adds	r2, r1, r3
     100:	42a2      	cmp	r2, r4
     102:	d332      	bcc.n	16a <Reset_Handler+0x7a>
     104:	2100      	movs	r1, #0
     106:	4b1f      	ldr	r3, [pc, #124]	; (184 <Reset_Handler+0x94>)
     108:	4a1f      	ldr	r2, [pc, #124]	; (188 <Reset_Handler+0x98>)
     10a:	4293      	cmp	r3, r2
     10c:	d331      	bcc.n	172 <Reset_Handler+0x82>
     10e:	21ff      	movs	r1, #255	; 0xff
     110:	4b1e      	ldr	r3, [pc, #120]	; (18c <Reset_Handler+0x9c>)
     112:	4a1f      	ldr	r2, [pc, #124]	; (190 <Reset_Handler+0xa0>)
     114:	438b      	bics	r3, r1
     116:	6093      	str	r3, [r2, #8]
     118:	2202      	movs	r2, #2
     11a:	250c      	movs	r5, #12
     11c:	2408      	movs	r4, #8
     11e:	2630      	movs	r6, #48	; 0x30
     120:	4b1c      	ldr	r3, [pc, #112]	; (194 <Reset_Handler+0xa4>)
     122:	481d      	ldr	r0, [pc, #116]	; (198 <Reset_Handler+0xa8>)
     124:	625a      	str	r2, [r3, #36]	; 0x24
     126:	78c3      	ldrb	r3, [r0, #3]
     128:	39fc      	subs	r1, #252	; 0xfc
     12a:	438b      	bics	r3, r1
     12c:	4313      	orrs	r3, r2
     12e:	70c3      	strb	r3, [r0, #3]
     130:	78c3      	ldrb	r3, [r0, #3]
     132:	43ab      	bics	r3, r5
     134:	4323      	orrs	r3, r4
     136:	70c3      	strb	r3, [r0, #3]
     138:	4b18      	ldr	r3, [pc, #96]	; (19c <Reset_Handler+0xac>)
     13a:	7b98      	ldrb	r0, [r3, #14]
     13c:	43b0      	bics	r0, r6
     13e:	0006      	movs	r6, r0
     140:	2020      	movs	r0, #32
     142:	4330      	orrs	r0, r6
     144:	7398      	strb	r0, [r3, #14]
     146:	7b98      	ldrb	r0, [r3, #14]
     148:	43a8      	bics	r0, r5
     14a:	4304      	orrs	r4, r0
     14c:	739c      	strb	r4, [r3, #14]
     14e:	7b98      	ldrb	r0, [r3, #14]
     150:	4388      	bics	r0, r1
     152:	4302      	orrs	r2, r0
     154:	739a      	strb	r2, [r3, #14]
     156:	2380      	movs	r3, #128	; 0x80
     158:	4a11      	ldr	r2, [pc, #68]	; (1a0 <Reset_Handler+0xb0>)
     15a:	6851      	ldr	r1, [r2, #4]
     15c:	430b      	orrs	r3, r1
     15e:	6053      	str	r3, [r2, #4]
     160:	4b10      	ldr	r3, [pc, #64]	; (1a4 <Reset_Handler+0xb4>)
     162:	4798      	blx	r3
     164:	4b10      	ldr	r3, [pc, #64]	; (1a8 <Reset_Handler+0xb8>)
     166:	4798      	blx	r3
     168:	e7fe      	b.n	168 <Reset_Handler+0x78>
     16a:	58c5      	ldr	r5, [r0, r3]
     16c:	3304      	adds	r3, #4
     16e:	6015      	str	r5, [r2, #0]
     170:	e7c5      	b.n	fe <Reset_Handler+0xe>
     172:	c302      	stmia	r3!, {r1}
     174:	e7c9      	b.n	10a <Reset_Handler+0x1a>
     176:	46c0      	nop			; (mov r8, r8)
     178:	000039bc 	.word	0x000039bc
     17c:	20000000 	.word	0x20000000
     180:	200000d8 	.word	0x200000d8
     184:	200000d8 	.word	0x200000d8
     188:	20000620 	.word	0x20000620
     18c:	00000000 	.word	0x00000000
     190:	e000ed00 	.word	0xe000ed00
     194:	410070fc 	.word	0x410070fc
     198:	41005000 	.word	0x41005000
     19c:	41004800 	.word	0x41004800
     1a0:	41004000 	.word	0x41004000
     1a4:	00002955 	.word	0x00002955
     1a8:	00002641 	.word	0x00002641

000001ac <USB_0_PORT_init>:
     1ac:	b5f0      	push	{r4, r5, r6, r7, lr}
     1ae:	20c0      	movs	r0, #192	; 0xc0
     1b0:	2280      	movs	r2, #128	; 0x80
     1b2:	2580      	movs	r5, #128	; 0x80
     1b4:	4b19      	ldr	r3, [pc, #100]	; (21c <USB_0_PORT_init+0x70>)
     1b6:	491a      	ldr	r1, [pc, #104]	; (220 <USB_0_PORT_init+0x74>)
     1b8:	001e      	movs	r6, r3
     1ba:	05c0      	lsls	r0, r0, #23
     1bc:	0452      	lsls	r2, r2, #17
     1be:	05ed      	lsls	r5, r5, #23
     1c0:	6082      	str	r2, [r0, #8]
     1c2:	629d      	str	r5, [r3, #40]	; 0x28
     1c4:	6299      	str	r1, [r3, #40]	; 0x28
     1c6:	2104      	movs	r1, #4
     1c8:	6142      	str	r2, [r0, #20]
     1ca:	3658      	adds	r6, #88	; 0x58
     1cc:	7832      	ldrb	r2, [r6, #0]
     1ce:	438a      	bics	r2, r1
     1d0:	7032      	strb	r2, [r6, #0]
     1d2:	2201      	movs	r2, #1
     1d4:	7831      	ldrb	r1, [r6, #0]
     1d6:	4391      	bics	r1, r2
     1d8:	4311      	orrs	r1, r2
     1da:	7031      	strb	r1, [r6, #0]
     1dc:	0019      	movs	r1, r3
     1de:	260f      	movs	r6, #15
     1e0:	313c      	adds	r1, #60	; 0x3c
     1e2:	780f      	ldrb	r7, [r1, #0]
     1e4:	43b7      	bics	r7, r6
     1e6:	46bc      	mov	ip, r7
     1e8:	2706      	movs	r7, #6
     1ea:	4664      	mov	r4, ip
     1ec:	4327      	orrs	r7, r4
     1ee:	700f      	strb	r7, [r1, #0]
     1f0:	2780      	movs	r7, #128	; 0x80
     1f2:	2404      	movs	r4, #4
     1f4:	04bf      	lsls	r7, r7, #18
     1f6:	6087      	str	r7, [r0, #8]
     1f8:	629d      	str	r5, [r3, #40]	; 0x28
     1fa:	4d0a      	ldr	r5, [pc, #40]	; (224 <USB_0_PORT_init+0x78>)
     1fc:	629d      	str	r5, [r3, #40]	; 0x28
     1fe:	6147      	str	r7, [r0, #20]
     200:	3359      	adds	r3, #89	; 0x59
     202:	7818      	ldrb	r0, [r3, #0]
     204:	43a0      	bics	r0, r4
     206:	7018      	strb	r0, [r3, #0]
     208:	7818      	ldrb	r0, [r3, #0]
     20a:	4390      	bics	r0, r2
     20c:	4302      	orrs	r2, r0
     20e:	701a      	strb	r2, [r3, #0]
     210:	780b      	ldrb	r3, [r1, #0]
     212:	401e      	ands	r6, r3
     214:	2360      	movs	r3, #96	; 0x60
     216:	4333      	orrs	r3, r6
     218:	700b      	strb	r3, [r1, #0]
     21a:	bdf0      	pop	{r4, r5, r6, r7, pc}
     21c:	41004400 	.word	0x41004400
     220:	c0000100 	.word	0xc0000100
     224:	c0000200 	.word	0xc0000200

00000228 <USB_0_CLOCK_init>:
     228:	2220      	movs	r2, #32
     22a:	4b06      	ldr	r3, [pc, #24]	; (244 <USB_0_CLOCK_init+0x1c>)
     22c:	69d9      	ldr	r1, [r3, #28]
     22e:	430a      	orrs	r2, r1
     230:	61da      	str	r2, [r3, #28]
     232:	2240      	movs	r2, #64	; 0x40
     234:	6959      	ldr	r1, [r3, #20]
     236:	430a      	orrs	r2, r1
     238:	615a      	str	r2, [r3, #20]
     23a:	4a03      	ldr	r2, [pc, #12]	; (248 <USB_0_CLOCK_init+0x20>)
     23c:	4b03      	ldr	r3, [pc, #12]	; (24c <USB_0_CLOCK_init+0x24>)
     23e:	805a      	strh	r2, [r3, #2]
     240:	4770      	bx	lr
     242:	46c0      	nop			; (mov r8, r8)
     244:	40000400 	.word	0x40000400
     248:	00004106 	.word	0x00004106
     24c:	40000c00 	.word	0x40000c00

00000250 <USB_0_init>:
     250:	b510      	push	{r4, lr}
     252:	4b03      	ldr	r3, [pc, #12]	; (260 <USB_0_init+0x10>)
     254:	4798      	blx	r3
     256:	4b03      	ldr	r3, [pc, #12]	; (264 <USB_0_init+0x14>)
     258:	4798      	blx	r3
     25a:	4b03      	ldr	r3, [pc, #12]	; (268 <USB_0_init+0x18>)
     25c:	4798      	blx	r3
     25e:	bd10      	pop	{r4, pc}
     260:	00000229 	.word	0x00000229
     264:	000004f1 	.word	0x000004f1
     268:	000001ad 	.word	0x000001ad

0000026c <system_init>:
     26c:	b570      	push	{r4, r5, r6, lr}
     26e:	4b13      	ldr	r3, [pc, #76]	; (2bc <system_init+0x50>)
     270:	4798      	blx	r3
     272:	22c0      	movs	r2, #192	; 0xc0
     274:	2020      	movs	r0, #32
     276:	4b12      	ldr	r3, [pc, #72]	; (2c0 <system_init+0x54>)
     278:	4912      	ldr	r1, [pc, #72]	; (2c4 <system_init+0x58>)
     27a:	05d2      	lsls	r2, r2, #23
     27c:	6050      	str	r0, [r2, #4]
     27e:	6299      	str	r1, [r3, #40]	; 0x28
     280:	4911      	ldr	r1, [pc, #68]	; (2c8 <system_init+0x5c>)
     282:	2404      	movs	r4, #4
     284:	6299      	str	r1, [r3, #40]	; 0x28
     286:	0019      	movs	r1, r3
     288:	6050      	str	r0, [r2, #4]
     28a:	3145      	adds	r1, #69	; 0x45
     28c:	780d      	ldrb	r5, [r1, #0]
     28e:	432c      	orrs	r4, r5
     290:	700c      	strb	r4, [r1, #0]
     292:	2401      	movs	r4, #1
     294:	6190      	str	r0, [r2, #24]
     296:	7808      	ldrb	r0, [r1, #0]
     298:	43a0      	bics	r0, r4
     29a:	7008      	strb	r0, [r1, #0]
     29c:	2110      	movs	r1, #16
     29e:	6151      	str	r1, [r2, #20]
     2a0:	6091      	str	r1, [r2, #8]
     2a2:	4a0a      	ldr	r2, [pc, #40]	; (2cc <system_init+0x60>)
     2a4:	629a      	str	r2, [r3, #40]	; 0x28
     2a6:	22c0      	movs	r2, #192	; 0xc0
     2a8:	0612      	lsls	r2, r2, #24
     2aa:	629a      	str	r2, [r3, #40]	; 0x28
     2ac:	3344      	adds	r3, #68	; 0x44
     2ae:	781a      	ldrb	r2, [r3, #0]
     2b0:	43a2      	bics	r2, r4
     2b2:	701a      	strb	r2, [r3, #0]
     2b4:	4b06      	ldr	r3, [pc, #24]	; (2d0 <system_init+0x64>)
     2b6:	4798      	blx	r3
     2b8:	bd70      	pop	{r4, r5, r6, pc}
     2ba:	46c0      	nop			; (mov r8, r8)
     2bc:	0000088d 	.word	0x0000088d
     2c0:	41004400 	.word	0x41004400
     2c4:	40020020 	.word	0x40020020
     2c8:	c0020000 	.word	0xc0020000
     2cc:	40000010 	.word	0x40000010
     2d0:	00000251 	.word	0x00000251

000002d4 <atomic_enter_critical>:
     2d4:	f3ef 8310 	mrs	r3, PRIMASK
     2d8:	6003      	str	r3, [r0, #0]
     2da:	b672      	cpsid	i
     2dc:	f3bf 8f5f 	dmb	sy
     2e0:	4770      	bx	lr

000002e2 <atomic_leave_critical>:
     2e2:	f3bf 8f5f 	dmb	sy
     2e6:	6803      	ldr	r3, [r0, #0]
     2e8:	f383 8810 	msr	PRIMASK, r3
     2ec:	4770      	bx	lr
	...

000002f0 <delay_ms>:
     2f0:	4b04      	ldr	r3, [pc, #16]	; (304 <delay_ms+0x14>)
     2f2:	b510      	push	{r4, lr}
     2f4:	681c      	ldr	r4, [r3, #0]
     2f6:	4b04      	ldr	r3, [pc, #16]	; (308 <delay_ms+0x18>)
     2f8:	4798      	blx	r3
     2fa:	4b04      	ldr	r3, [pc, #16]	; (30c <delay_ms+0x1c>)
     2fc:	0001      	movs	r1, r0
     2fe:	0020      	movs	r0, r4
     300:	4798      	blx	r3
     302:	bd10      	pop	{r4, pc}
     304:	200000f4 	.word	0x200000f4
     308:	00000869 	.word	0x00000869
     30c:	00000885 	.word	0x00000885

00000310 <_usb_d_find_ep>:
     310:	220f      	movs	r2, #15
     312:	2300      	movs	r3, #0
     314:	b570      	push	{r4, r5, r6, lr}
     316:	4c0a      	ldr	r4, [pc, #40]	; (340 <_usb_d_find_ep+0x30>)
     318:	4002      	ands	r2, r0
     31a:	015e      	lsls	r6, r3, #5
     31c:	19a5      	adds	r5, r4, r6
     31e:	786d      	ldrb	r5, [r5, #1]
     320:	b259      	sxtb	r1, r3
     322:	4285      	cmp	r5, r0
     324:	d009      	beq.n	33a <_usb_d_find_ep+0x2a>
     326:	5d36      	ldrb	r6, [r6, r4]
     328:	2e00      	cmp	r6, #0
     32a:	d101      	bne.n	330 <_usb_d_find_ep+0x20>
     32c:	42aa      	cmp	r2, r5
     32e:	d004      	beq.n	33a <_usb_d_find_ep+0x2a>
     330:	3301      	adds	r3, #1
     332:	2b0d      	cmp	r3, #13
     334:	d1f1      	bne.n	31a <_usb_d_find_ep+0xa>
     336:	2101      	movs	r1, #1
     338:	4249      	negs	r1, r1
     33a:	0008      	movs	r0, r1
     33c:	bd70      	pop	{r4, r5, r6, pc}
     33e:	46c0      	nop			; (mov r8, r8)
     340:	200000f8 	.word	0x200000f8

00000344 <usb_d_dummy_cb_false>:
     344:	2000      	movs	r0, #0
     346:	4770      	bx	lr

00000348 <usb_d_cb_trans_more>:
     348:	b570      	push	{r4, r5, r6, lr}
     34a:	4b08      	ldr	r3, [pc, #32]	; (36c <usb_d_cb_trans_more+0x24>)
     34c:	0004      	movs	r4, r0
     34e:	000d      	movs	r5, r1
     350:	4798      	blx	r3
     352:	4b07      	ldr	r3, [pc, #28]	; (370 <usb_d_cb_trans_more+0x28>)
     354:	0140      	lsls	r0, r0, #5
     356:	181b      	adds	r3, r3, r0
     358:	789a      	ldrb	r2, [r3, #2]
     35a:	2000      	movs	r0, #0
     35c:	2a03      	cmp	r2, #3
     35e:	d103      	bne.n	368 <usb_d_cb_trans_more+0x20>
     360:	699b      	ldr	r3, [r3, #24]
     362:	0029      	movs	r1, r5
     364:	0020      	movs	r0, r4
     366:	4798      	blx	r3
     368:	bd70      	pop	{r4, r5, r6, pc}
     36a:	46c0      	nop			; (mov r8, r8)
     36c:	00000311 	.word	0x00000311
     370:	200000f8 	.word	0x200000f8

00000374 <_usb_d_cb_trans_done>:
     374:	b5f0      	push	{r4, r5, r6, r7, lr}
     376:	4b39      	ldr	r3, [pc, #228]	; (45c <STACK_SIZE+0x5c>)
     378:	b087      	sub	sp, #28
     37a:	9000      	str	r0, [sp, #0]
     37c:	000f      	movs	r7, r1
     37e:	9201      	str	r2, [sp, #4]
     380:	4798      	blx	r3
     382:	4d37      	ldr	r5, [pc, #220]	; (460 <STACK_SIZE+0x60>)
     384:	0144      	lsls	r4, r0, #5
     386:	2f00      	cmp	r7, #0
     388:	d142      	bne.n	410 <STACK_SIZE+0x10>
     38a:	192e      	adds	r6, r5, r4
     38c:	70f7      	strb	r7, [r6, #3]
     38e:	5d29      	ldrb	r1, [r5, r4]
     390:	2900      	cmp	r1, #0
     392:	d134      	bne.n	3fe <_usb_d_cb_trans_done+0x8a>
     394:	0022      	movs	r2, r4
     396:	78b7      	ldrb	r7, [r6, #2]
     398:	320c      	adds	r2, #12
     39a:	7870      	ldrb	r0, [r6, #1]
     39c:	69f3      	ldr	r3, [r6, #28]
     39e:	2f03      	cmp	r7, #3
     3a0:	d128      	bne.n	3f4 <_usb_d_cb_trans_done+0x80>
     3a2:	270c      	movs	r7, #12
     3a4:	18aa      	adds	r2, r5, r2
     3a6:	3101      	adds	r1, #1
     3a8:	57f7      	ldrsb	r7, [r6, r7]
     3aa:	4798      	blx	r3
     3ac:	7873      	ldrb	r3, [r6, #1]
     3ae:	2800      	cmp	r0, #0
     3b0:	d00d      	beq.n	3ce <_usb_d_cb_trans_done+0x5a>
     3b2:	2205      	movs	r2, #5
     3b4:	70b2      	strb	r2, [r6, #2]
     3b6:	3a03      	subs	r2, #3
     3b8:	70f2      	strb	r2, [r6, #3]
     3ba:	0018      	movs	r0, r3
     3bc:	2f00      	cmp	r7, #0
     3be:	db01      	blt.n	3c4 <_usb_d_cb_trans_done+0x50>
     3c0:	2080      	movs	r0, #128	; 0x80
     3c2:	4318      	orrs	r0, r3
     3c4:	2101      	movs	r1, #1
     3c6:	4b27      	ldr	r3, [pc, #156]	; (464 <STACK_SIZE+0x64>)
     3c8:	4798      	blx	r3
     3ca:	b007      	add	sp, #28
     3cc:	bdf0      	pop	{r4, r5, r6, r7, pc}
     3ce:	2204      	movs	r2, #4
     3d0:	70b2      	strb	r2, [r6, #2]
     3d2:	aa03      	add	r2, sp, #12
     3d4:	9003      	str	r0, [sp, #12]
     3d6:	6050      	str	r0, [r2, #4]
     3d8:	2f00      	cmp	r7, #0
     3da:	db08      	blt.n	3ee <_usb_d_cb_trans_done+0x7a>
     3dc:	2080      	movs	r0, #128	; 0x80
     3de:	4303      	orrs	r3, r0
     3e0:	7213      	strb	r3, [r2, #8]
     3e2:	2301      	movs	r3, #1
     3e4:	0010      	movs	r0, r2
     3e6:	7253      	strb	r3, [r2, #9]
     3e8:	4b1f      	ldr	r3, [pc, #124]	; (468 <STACK_SIZE+0x68>)
     3ea:	4798      	blx	r3
     3ec:	e7ed      	b.n	3ca <_usb_d_cb_trans_done+0x56>
     3ee:	200f      	movs	r0, #15
     3f0:	4003      	ands	r3, r0
     3f2:	e7f5      	b.n	3e0 <_usb_d_cb_trans_done+0x6c>
     3f4:	18aa      	adds	r2, r5, r2
     3f6:	4798      	blx	r3
     3f8:	2302      	movs	r3, #2
     3fa:	70b3      	strb	r3, [r6, #2]
     3fc:	e7e5      	b.n	3ca <_usb_d_cb_trans_done+0x56>
     3fe:	2301      	movs	r3, #1
     400:	70b3      	strb	r3, [r6, #2]
     402:	192c      	adds	r4, r5, r4
     404:	78e1      	ldrb	r1, [r4, #3]
     406:	69e3      	ldr	r3, [r4, #28]
     408:	9a01      	ldr	r2, [sp, #4]
     40a:	9800      	ldr	r0, [sp, #0]
     40c:	4798      	blx	r3
     40e:	e7dc      	b.n	3ca <_usb_d_cb_trans_done+0x56>
     410:	192b      	adds	r3, r5, r4
     412:	2f01      	cmp	r7, #1
     414:	d10c      	bne.n	430 <STACK_SIZE+0x30>
     416:	2202      	movs	r2, #2
     418:	70da      	strb	r2, [r3, #3]
     41a:	5d29      	ldrb	r1, [r5, r4]
     41c:	2900      	cmp	r1, #0
     41e:	d104      	bne.n	42a <STACK_SIZE+0x2a>
     420:	709a      	strb	r2, [r3, #2]
     422:	9800      	ldr	r0, [sp, #0]
     424:	4b0f      	ldr	r3, [pc, #60]	; (464 <STACK_SIZE+0x64>)
     426:	4798      	blx	r3
     428:	e7eb      	b.n	402 <STACK_SIZE+0x2>
     42a:	2205      	movs	r2, #5
     42c:	709a      	strb	r2, [r3, #2]
     42e:	e7e8      	b.n	402 <STACK_SIZE+0x2>
     430:	2f02      	cmp	r7, #2
     432:	d108      	bne.n	446 <STACK_SIZE+0x46>
     434:	2204      	movs	r2, #4
     436:	70da      	strb	r2, [r3, #3]
     438:	5d2a      	ldrb	r2, [r5, r4]
     43a:	2a00      	cmp	r2, #0
     43c:	d101      	bne.n	442 <STACK_SIZE+0x42>
     43e:	709f      	strb	r7, [r3, #2]
     440:	e7c3      	b.n	3ca <_usb_d_cb_trans_done+0x56>
     442:	2201      	movs	r2, #1
     444:	e7f2      	b.n	42c <STACK_SIZE+0x2c>
     446:	2f03      	cmp	r7, #3
     448:	d104      	bne.n	454 <STACK_SIZE+0x54>
     44a:	2200      	movs	r2, #0
     44c:	709a      	strb	r2, [r3, #2]
     44e:	3205      	adds	r2, #5
     450:	70da      	strb	r2, [r3, #3]
     452:	e7d6      	b.n	402 <STACK_SIZE+0x2>
     454:	2206      	movs	r2, #6
     456:	709a      	strb	r2, [r3, #2]
     458:	e7fa      	b.n	450 <STACK_SIZE+0x50>
     45a:	46c0      	nop			; (mov r8, r8)
     45c:	00000311 	.word	0x00000311
     460:	200000f8 	.word	0x200000f8
     464:	00001381 	.word	0x00001381
     468:	000014a9 	.word	0x000014a9

0000046c <usb_d_cb_trans_setup>:
     46c:	b5f0      	push	{r4, r5, r6, r7, lr}
     46e:	4b1c      	ldr	r3, [pc, #112]	; (4e0 <usb_d_cb_trans_setup+0x74>)
     470:	b085      	sub	sp, #20
     472:	0004      	movs	r4, r0
     474:	4798      	blx	r3
     476:	4f1b      	ldr	r7, [pc, #108]	; (4e4 <usb_d_cb_trans_setup+0x78>)
     478:	0143      	lsls	r3, r0, #5
     47a:	9303      	str	r3, [sp, #12]
     47c:	330c      	adds	r3, #12
     47e:	18fb      	adds	r3, r7, r3
     480:	9301      	str	r3, [sp, #4]
     482:	0019      	movs	r1, r3
     484:	0020      	movs	r0, r4
     486:	4b18      	ldr	r3, [pc, #96]	; (4e8 <usb_d_cb_trans_setup+0x7c>)
     488:	4798      	blx	r3
     48a:	2680      	movs	r6, #128	; 0x80
     48c:	b2c0      	uxtb	r0, r0
     48e:	4d17      	ldr	r5, [pc, #92]	; (4ec <usb_d_cb_trans_setup+0x80>)
     490:	4276      	negs	r6, r6
     492:	2808      	cmp	r0, #8
     494:	d008      	beq.n	4a8 <usb_d_cb_trans_setup+0x3c>
     496:	2101      	movs	r1, #1
     498:	0020      	movs	r0, r4
     49a:	47a8      	blx	r5
     49c:	2101      	movs	r1, #1
     49e:	4334      	orrs	r4, r6
     4a0:	b2e0      	uxtb	r0, r4
     4a2:	47a8      	blx	r5
     4a4:	b005      	add	sp, #20
     4a6:	bdf0      	pop	{r4, r5, r6, r7, pc}
     4a8:	2100      	movs	r1, #0
     4aa:	4326      	orrs	r6, r4
     4ac:	0020      	movs	r0, r4
     4ae:	47a8      	blx	r5
     4b0:	b2f3      	uxtb	r3, r6
     4b2:	2100      	movs	r1, #0
     4b4:	0018      	movs	r0, r3
     4b6:	9302      	str	r3, [sp, #8]
     4b8:	47a8      	blx	r5
     4ba:	9b03      	ldr	r3, [sp, #12]
     4bc:	9901      	ldr	r1, [sp, #4]
     4be:	18fe      	adds	r6, r7, r3
     4c0:	2701      	movs	r7, #1
     4c2:	0020      	movs	r0, r4
     4c4:	70b7      	strb	r7, [r6, #2]
     4c6:	6973      	ldr	r3, [r6, #20]
     4c8:	4798      	blx	r3
     4ca:	2800      	cmp	r0, #0
     4cc:	d1ea      	bne.n	4a4 <usb_d_cb_trans_setup+0x38>
     4ce:	2305      	movs	r3, #5
     4d0:	0039      	movs	r1, r7
     4d2:	70b3      	strb	r3, [r6, #2]
     4d4:	0020      	movs	r0, r4
     4d6:	47a8      	blx	r5
     4d8:	0039      	movs	r1, r7
     4da:	9802      	ldr	r0, [sp, #8]
     4dc:	e7e1      	b.n	4a2 <usb_d_cb_trans_setup+0x36>
     4de:	46c0      	nop			; (mov r8, r8)
     4e0:	00000311 	.word	0x00000311
     4e4:	200000f8 	.word	0x200000f8
     4e8:	00001451 	.word	0x00001451
     4ec:	00001381 	.word	0x00001381

000004f0 <usb_d_init>:
     4f0:	b510      	push	{r4, lr}
     4f2:	4b12      	ldr	r3, [pc, #72]	; (53c <usb_d_init+0x4c>)
     4f4:	4798      	blx	r3
     4f6:	2800      	cmp	r0, #0
     4f8:	db1f      	blt.n	53a <usb_d_init+0x4a>
     4fa:	22d0      	movs	r2, #208	; 0xd0
     4fc:	4c10      	ldr	r4, [pc, #64]	; (540 <usb_d_init+0x50>)
     4fe:	0052      	lsls	r2, r2, #1
     500:	0020      	movs	r0, r4
     502:	4b10      	ldr	r3, [pc, #64]	; (544 <usb_d_init+0x54>)
     504:	2100      	movs	r1, #0
     506:	4798      	blx	r3
     508:	20ff      	movs	r0, #255	; 0xff
     50a:	1c63      	adds	r3, r4, #1
     50c:	4a0e      	ldr	r2, [pc, #56]	; (548 <usb_d_init+0x58>)
     50e:	34a2      	adds	r4, #162	; 0xa2
     510:	34ff      	adds	r4, #255	; 0xff
     512:	0019      	movs	r1, r3
     514:	7018      	strb	r0, [r3, #0]
     516:	3113      	adds	r1, #19
     518:	3320      	adds	r3, #32
     51a:	600a      	str	r2, [r1, #0]
     51c:	604a      	str	r2, [r1, #4]
     51e:	608a      	str	r2, [r1, #8]
     520:	42a3      	cmp	r3, r4
     522:	d1f6      	bne.n	512 <usb_d_init+0x22>
     524:	4c09      	ldr	r4, [pc, #36]	; (54c <usb_d_init+0x5c>)
     526:	490a      	ldr	r1, [pc, #40]	; (550 <usb_d_init+0x60>)
     528:	2000      	movs	r0, #0
     52a:	47a0      	blx	r4
     52c:	4909      	ldr	r1, [pc, #36]	; (554 <usb_d_init+0x64>)
     52e:	2001      	movs	r0, #1
     530:	47a0      	blx	r4
     532:	2002      	movs	r0, #2
     534:	4908      	ldr	r1, [pc, #32]	; (558 <usb_d_init+0x68>)
     536:	47a0      	blx	r4
     538:	2000      	movs	r0, #0
     53a:	bd10      	pop	{r4, pc}
     53c:	00000fd5 	.word	0x00000fd5
     540:	200000f8 	.word	0x200000f8
     544:	000029d7 	.word	0x000029d7
     548:	00000345 	.word	0x00000345
     54c:	000015e5 	.word	0x000015e5
     550:	0000046d 	.word	0x0000046d
     554:	00000349 	.word	0x00000349
     558:	00000375 	.word	0x00000375

0000055c <usb_d_register_callback>:
     55c:	b510      	push	{r4, lr}
     55e:	4b01      	ldr	r3, [pc, #4]	; (564 <usb_d_register_callback+0x8>)
     560:	4798      	blx	r3
     562:	bd10      	pop	{r4, pc}
     564:	000015c1 	.word	0x000015c1

00000568 <usb_d_enable>:
     568:	b510      	push	{r4, lr}
     56a:	4b01      	ldr	r3, [pc, #4]	; (570 <usb_d_enable+0x8>)
     56c:	4798      	blx	r3
     56e:	bd10      	pop	{r4, pc}
     570:	00001099 	.word	0x00001099

00000574 <usb_d_attach>:
     574:	b510      	push	{r4, lr}
     576:	4b01      	ldr	r3, [pc, #4]	; (57c <usb_d_attach+0x8>)
     578:	4798      	blx	r3
     57a:	bd10      	pop	{r4, pc}
     57c:	000010e1 	.word	0x000010e1

00000580 <usb_d_set_address>:
     580:	b510      	push	{r4, lr}
     582:	4b01      	ldr	r3, [pc, #4]	; (588 <usb_d_set_address+0x8>)
     584:	4798      	blx	r3
     586:	bd10      	pop	{r4, pc}
     588:	000010f1 	.word	0x000010f1

0000058c <usb_d_ep_init>:
     58c:	b5f8      	push	{r3, r4, r5, r6, r7, lr}
     58e:	4c10      	ldr	r4, [pc, #64]	; (5d0 <usb_d_ep_init+0x44>)
     590:	0006      	movs	r6, r0
     592:	000d      	movs	r5, r1
     594:	0017      	movs	r7, r2
     596:	47a0      	blx	r4
     598:	2800      	cmp	r0, #0
     59a:	da13      	bge.n	5c4 <usb_d_ep_init+0x38>
     59c:	20ff      	movs	r0, #255	; 0xff
     59e:	47a0      	blx	r4
     5a0:	1e04      	subs	r4, r0, #0
     5a2:	db12      	blt.n	5ca <usb_d_ep_init+0x3e>
     5a4:	003a      	movs	r2, r7
     5a6:	0029      	movs	r1, r5
     5a8:	0030      	movs	r0, r6
     5aa:	4b0a      	ldr	r3, [pc, #40]	; (5d4 <usb_d_ep_init+0x48>)
     5ac:	4798      	blx	r3
     5ae:	2800      	cmp	r0, #0
     5b0:	db07      	blt.n	5c2 <usb_d_ep_init+0x36>
     5b2:	4b09      	ldr	r3, [pc, #36]	; (5d8 <usb_d_ep_init+0x4c>)
     5b4:	0164      	lsls	r4, r4, #5
     5b6:	191a      	adds	r2, r3, r4
     5b8:	7056      	strb	r6, [r2, #1]
     5ba:	2203      	movs	r2, #3
     5bc:	2000      	movs	r0, #0
     5be:	4015      	ands	r5, r2
     5c0:	54e5      	strb	r5, [r4, r3]
     5c2:	bdf8      	pop	{r3, r4, r5, r6, r7, pc}
     5c4:	2014      	movs	r0, #20
     5c6:	4240      	negs	r0, r0
     5c8:	e7fb      	b.n	5c2 <usb_d_ep_init+0x36>
     5ca:	2015      	movs	r0, #21
     5cc:	e7fb      	b.n	5c6 <usb_d_ep_init+0x3a>
     5ce:	46c0      	nop			; (mov r8, r8)
     5d0:	00000311 	.word	0x00000311
     5d4:	00001101 	.word	0x00001101
     5d8:	200000f8 	.word	0x200000f8

000005dc <usb_d_ep0_init>:
     5dc:	2100      	movs	r1, #0
     5de:	b510      	push	{r4, lr}
     5e0:	b282      	uxth	r2, r0
     5e2:	4b02      	ldr	r3, [pc, #8]	; (5ec <usb_d_ep0_init+0x10>)
     5e4:	0008      	movs	r0, r1
     5e6:	4798      	blx	r3
     5e8:	bd10      	pop	{r4, pc}
     5ea:	46c0      	nop			; (mov r8, r8)
     5ec:	0000058d 	.word	0x0000058d

000005f0 <usb_d_ep_deinit>:
     5f0:	b570      	push	{r4, r5, r6, lr}
     5f2:	4b07      	ldr	r3, [pc, #28]	; (610 <usb_d_ep_deinit+0x20>)
     5f4:	0005      	movs	r5, r0
     5f6:	4798      	blx	r3
     5f8:	1e04      	subs	r4, r0, #0
     5fa:	db07      	blt.n	60c <usb_d_ep_deinit+0x1c>
     5fc:	4b05      	ldr	r3, [pc, #20]	; (614 <usb_d_ep_deinit+0x24>)
     5fe:	0028      	movs	r0, r5
     600:	4798      	blx	r3
     602:	4b05      	ldr	r3, [pc, #20]	; (618 <usb_d_ep_deinit+0x28>)
     604:	0164      	lsls	r4, r4, #5
     606:	191c      	adds	r4, r3, r4
     608:	23ff      	movs	r3, #255	; 0xff
     60a:	7063      	strb	r3, [r4, #1]
     60c:	bd70      	pop	{r4, r5, r6, pc}
     60e:	46c0      	nop			; (mov r8, r8)
     610:	00000311 	.word	0x00000311
     614:	000011c9 	.word	0x000011c9
     618:	200000f8 	.word	0x200000f8

0000061c <usb_d_ep_enable>:
     61c:	b570      	push	{r4, r5, r6, lr}
     61e:	4b0c      	ldr	r3, [pc, #48]	; (650 <usb_d_ep_enable+0x34>)
     620:	0005      	movs	r5, r0
     622:	4798      	blx	r3
     624:	2800      	cmp	r0, #0
     626:	db0f      	blt.n	648 <usb_d_ep_enable+0x2c>
     628:	4c0a      	ldr	r4, [pc, #40]	; (654 <usb_d_ep_enable+0x38>)
     62a:	0140      	lsls	r0, r0, #5
     62c:	5d03      	ldrb	r3, [r0, r4]
     62e:	1824      	adds	r4, r4, r0
     630:	425a      	negs	r2, r3
     632:	4153      	adcs	r3, r2
     634:	3301      	adds	r3, #1
     636:	70a3      	strb	r3, [r4, #2]
     638:	0028      	movs	r0, r5
     63a:	4b07      	ldr	r3, [pc, #28]	; (658 <usb_d_ep_enable+0x3c>)
     63c:	4798      	blx	r3
     63e:	2800      	cmp	r0, #0
     640:	da01      	bge.n	646 <usb_d_ep_enable+0x2a>
     642:	2300      	movs	r3, #0
     644:	70a3      	strb	r3, [r4, #2]
     646:	bd70      	pop	{r4, r5, r6, pc}
     648:	2012      	movs	r0, #18
     64a:	4240      	negs	r0, r0
     64c:	e7fb      	b.n	646 <usb_d_ep_enable+0x2a>
     64e:	46c0      	nop			; (mov r8, r8)
     650:	00000311 	.word	0x00000311
     654:	200000f8 	.word	0x200000f8
     658:	00001245 	.word	0x00001245

0000065c <usb_d_ep_transfer>:
     65c:	b5f0      	push	{r4, r5, r6, r7, lr}
     65e:	7a03      	ldrb	r3, [r0, #8]
     660:	b08b      	sub	sp, #44	; 0x2c
     662:	0005      	movs	r5, r0
     664:	9301      	str	r3, [sp, #4]
     666:	0018      	movs	r0, r3
     668:	4b35      	ldr	r3, [pc, #212]	; (740 <usb_d_ep_transfer+0xe4>)
     66a:	4798      	blx	r3
     66c:	7a6b      	ldrb	r3, [r5, #9]
     66e:	1e06      	subs	r6, r0, #0
     670:	9303      	str	r3, [sp, #12]
     672:	686c      	ldr	r4, [r5, #4]
     674:	db62      	blt.n	73c <usb_d_ep_transfer+0xe0>
     676:	4b33      	ldr	r3, [pc, #204]	; (744 <usb_d_ep_transfer+0xe8>)
     678:	a806      	add	r0, sp, #24
     67a:	4798      	blx	r3
     67c:	0173      	lsls	r3, r6, #5
     67e:	9300      	str	r3, [sp, #0]
     680:	9a00      	ldr	r2, [sp, #0]
     682:	4b31      	ldr	r3, [pc, #196]	; (748 <usb_d_ep_transfer+0xec>)
     684:	189e      	adds	r6, r3, r2
     686:	78b3      	ldrb	r3, [r6, #2]
     688:	aa04      	add	r2, sp, #16
     68a:	1dd7      	adds	r7, r2, #7
     68c:	703b      	strb	r3, [r7, #0]
     68e:	783b      	ldrb	r3, [r7, #0]
     690:	b2db      	uxtb	r3, r3
     692:	9302      	str	r3, [sp, #8]
     694:	9a02      	ldr	r2, [sp, #8]
     696:	4b2d      	ldr	r3, [pc, #180]	; (74c <usb_d_ep_transfer+0xf0>)
     698:	2a01      	cmp	r2, #1
     69a:	d11d      	bne.n	6d8 <usb_d_ep_transfer+0x7c>
     69c:	3202      	adds	r2, #2
     69e:	70b2      	strb	r2, [r6, #2]
     6a0:	a806      	add	r0, sp, #24
     6a2:	4798      	blx	r3
     6a4:	4b28      	ldr	r3, [pc, #160]	; (748 <usb_d_ep_transfer+0xec>)
     6a6:	9a00      	ldr	r2, [sp, #0]
     6a8:	5cd3      	ldrb	r3, [r2, r3]
     6aa:	2b00      	cmp	r3, #0
     6ac:	d025      	beq.n	6fa <usb_d_ep_transfer+0x9e>
     6ae:	9b01      	ldr	r3, [sp, #4]
     6b0:	09da      	lsrs	r2, r3, #7
     6b2:	9b03      	ldr	r3, [sp, #12]
     6b4:	1e59      	subs	r1, r3, #1
     6b6:	418b      	sbcs	r3, r1
     6b8:	b2db      	uxtb	r3, r3
     6ba:	7a29      	ldrb	r1, [r5, #8]
     6bc:	682d      	ldr	r5, [r5, #0]
     6be:	a807      	add	r0, sp, #28
     6c0:	9507      	str	r5, [sp, #28]
     6c2:	6044      	str	r4, [r0, #4]
     6c4:	2a00      	cmp	r2, #0
     6c6:	d036      	beq.n	736 <usb_d_ep_transfer+0xda>
     6c8:	2280      	movs	r2, #128	; 0x80
     6ca:	430a      	orrs	r2, r1
     6cc:	7243      	strb	r3, [r0, #9]
     6ce:	4b20      	ldr	r3, [pc, #128]	; (750 <usb_d_ep_transfer+0xf4>)
     6d0:	7202      	strb	r2, [r0, #8]
     6d2:	4798      	blx	r3
     6d4:	b00b      	add	sp, #44	; 0x2c
     6d6:	bdf0      	pop	{r4, r5, r6, r7, pc}
     6d8:	a806      	add	r0, sp, #24
     6da:	4798      	blx	r3
     6dc:	783b      	ldrb	r3, [r7, #0]
     6de:	2002      	movs	r0, #2
     6e0:	b2db      	uxtb	r3, r3
     6e2:	2b05      	cmp	r3, #5
     6e4:	d0f6      	beq.n	6d4 <usb_d_ep_transfer+0x78>
     6e6:	2b06      	cmp	r3, #6
     6e8:	d004      	beq.n	6f4 <usb_d_ep_transfer+0x98>
     6ea:	2001      	movs	r0, #1
     6ec:	2b00      	cmp	r3, #0
     6ee:	d1f1      	bne.n	6d4 <usb_d_ep_transfer+0x78>
     6f0:	2013      	movs	r0, #19
     6f2:	e000      	b.n	6f6 <usb_d_ep_transfer+0x9a>
     6f4:	2010      	movs	r0, #16
     6f6:	4240      	negs	r0, r0
     6f8:	e7ec      	b.n	6d4 <usb_d_ep_transfer+0x78>
     6fa:	7cf2      	ldrb	r2, [r6, #19]
     6fc:	7cb3      	ldrb	r3, [r6, #18]
     6fe:	0212      	lsls	r2, r2, #8
     700:	189b      	adds	r3, r3, r2
     702:	b29b      	uxth	r3, r3
     704:	2b00      	cmp	r3, #0
     706:	d105      	bne.n	714 <usb_d_ep_transfer+0xb8>
     708:	2204      	movs	r2, #4
     70a:	001c      	movs	r4, r3
     70c:	9b02      	ldr	r3, [sp, #8]
     70e:	70b2      	strb	r2, [r6, #2]
     710:	001a      	movs	r2, r3
     712:	e7d2      	b.n	6ba <usb_d_ep_transfer+0x5e>
     714:	429c      	cmp	r4, r3
     716:	d900      	bls.n	71a <usb_d_ep_transfer+0xbe>
     718:	001c      	movs	r4, r3
     71a:	490b      	ldr	r1, [pc, #44]	; (748 <usb_d_ep_transfer+0xec>)
     71c:	9a00      	ldr	r2, [sp, #0]
     71e:	468c      	mov	ip, r1
     720:	4462      	add	r2, ip
     722:	7b12      	ldrb	r2, [r2, #12]
     724:	2a7f      	cmp	r2, #127	; 0x7f
     726:	d904      	bls.n	732 <usb_d_ep_transfer+0xd6>
     728:	429c      	cmp	r4, r3
     72a:	419b      	sbcs	r3, r3
     72c:	2201      	movs	r2, #1
     72e:	425b      	negs	r3, r3
     730:	e7c3      	b.n	6ba <usb_d_ep_transfer+0x5e>
     732:	2300      	movs	r3, #0
     734:	e7ec      	b.n	710 <usb_d_ep_transfer+0xb4>
     736:	220f      	movs	r2, #15
     738:	400a      	ands	r2, r1
     73a:	e7c7      	b.n	6cc <usb_d_ep_transfer+0x70>
     73c:	2012      	movs	r0, #18
     73e:	e7da      	b.n	6f6 <usb_d_ep_transfer+0x9a>
     740:	00000311 	.word	0x00000311
     744:	000002d5 	.word	0x000002d5
     748:	200000f8 	.word	0x200000f8
     74c:	000002e3 	.word	0x000002e3
     750:	000014a9 	.word	0x000014a9

00000754 <usb_d_ep_halt>:
     754:	b5f8      	push	{r3, r4, r5, r6, r7, lr}
     756:	0004      	movs	r4, r0
     758:	1e0d      	subs	r5, r1, #0
     75a:	d11b      	bne.n	794 <usb_d_ep_halt+0x40>
     75c:	4b12      	ldr	r3, [pc, #72]	; (7a8 <usb_d_ep_halt+0x54>)
     75e:	4798      	blx	r3
     760:	1e06      	subs	r6, r0, #0
     762:	db1e      	blt.n	7a2 <usb_d_ep_halt+0x4e>
     764:	2102      	movs	r1, #2
     766:	0020      	movs	r0, r4
     768:	4f10      	ldr	r7, [pc, #64]	; (7ac <usb_d_ep_halt+0x58>)
     76a:	47b8      	blx	r7
     76c:	2800      	cmp	r0, #0
     76e:	d010      	beq.n	792 <usb_d_ep_halt+0x3e>
     770:	0029      	movs	r1, r5
     772:	0020      	movs	r0, r4
     774:	47b8      	blx	r7
     776:	2800      	cmp	r0, #0
     778:	db0b      	blt.n	792 <usb_d_ep_halt+0x3e>
     77a:	4b0d      	ldr	r3, [pc, #52]	; (7b0 <usb_d_ep_halt+0x5c>)
     77c:	0176      	lsls	r6, r6, #5
     77e:	199e      	adds	r6, r3, r6
     780:	2103      	movs	r1, #3
     782:	2301      	movs	r3, #1
     784:	70f1      	strb	r1, [r6, #3]
     786:	70b3      	strb	r3, [r6, #2]
     788:	002a      	movs	r2, r5
     78a:	69f3      	ldr	r3, [r6, #28]
     78c:	0020      	movs	r0, r4
     78e:	4798      	blx	r3
     790:	0028      	movs	r0, r5
     792:	bdf8      	pop	{r3, r4, r5, r6, r7, pc}
     794:	4b05      	ldr	r3, [pc, #20]	; (7ac <usb_d_ep_halt+0x58>)
     796:	2901      	cmp	r1, #1
     798:	d000      	beq.n	79c <usb_d_ep_halt+0x48>
     79a:	2102      	movs	r1, #2
     79c:	0020      	movs	r0, r4
     79e:	4798      	blx	r3
     7a0:	e7f7      	b.n	792 <usb_d_ep_halt+0x3e>
     7a2:	2012      	movs	r0, #18
     7a4:	4240      	negs	r0, r0
     7a6:	e7f4      	b.n	792 <usb_d_ep_halt+0x3e>
     7a8:	00000311 	.word	0x00000311
     7ac:	00001381 	.word	0x00001381
     7b0:	200000f8 	.word	0x200000f8

000007b4 <usb_d_ep_register_callback>:
     7b4:	b570      	push	{r4, r5, r6, lr}
     7b6:	4b0f      	ldr	r3, [pc, #60]	; (7f4 <usb_d_ep_register_callback+0x40>)
     7b8:	0015      	movs	r5, r2
     7ba:	000c      	movs	r4, r1
     7bc:	4798      	blx	r3
     7be:	2d00      	cmp	r5, #0
     7c0:	d100      	bne.n	7c4 <usb_d_ep_register_callback+0x10>
     7c2:	4d0d      	ldr	r5, [pc, #52]	; (7f8 <usb_d_ep_register_callback+0x44>)
     7c4:	2800      	cmp	r0, #0
     7c6:	db05      	blt.n	7d4 <usb_d_ep_register_callback+0x20>
     7c8:	2c01      	cmp	r4, #1
     7ca:	d009      	beq.n	7e0 <usb_d_ep_register_callback+0x2c>
     7cc:	2c00      	cmp	r4, #0
     7ce:	d002      	beq.n	7d6 <usb_d_ep_register_callback+0x22>
     7d0:	2c02      	cmp	r4, #2
     7d2:	d00a      	beq.n	7ea <usb_d_ep_register_callback+0x36>
     7d4:	bd70      	pop	{r4, r5, r6, pc}
     7d6:	4b09      	ldr	r3, [pc, #36]	; (7fc <usb_d_ep_register_callback+0x48>)
     7d8:	0140      	lsls	r0, r0, #5
     7da:	1818      	adds	r0, r3, r0
     7dc:	6145      	str	r5, [r0, #20]
     7de:	e7f9      	b.n	7d4 <usb_d_ep_register_callback+0x20>
     7e0:	4b06      	ldr	r3, [pc, #24]	; (7fc <usb_d_ep_register_callback+0x48>)
     7e2:	0140      	lsls	r0, r0, #5
     7e4:	1818      	adds	r0, r3, r0
     7e6:	6185      	str	r5, [r0, #24]
     7e8:	e7f4      	b.n	7d4 <usb_d_ep_register_callback+0x20>
     7ea:	4b04      	ldr	r3, [pc, #16]	; (7fc <usb_d_ep_register_callback+0x48>)
     7ec:	0140      	lsls	r0, r0, #5
     7ee:	1818      	adds	r0, r3, r0
     7f0:	61c5      	str	r5, [r0, #28]
     7f2:	e7ef      	b.n	7d4 <usb_d_ep_register_callback+0x20>
     7f4:	00000311 	.word	0x00000311
     7f8:	00000345 	.word	0x00000345
     7fc:	200000f8 	.word	0x200000f8

00000800 <list_insert_at_end>:
     800:	6803      	ldr	r3, [r0, #0]
     802:	2b00      	cmp	r3, #0
     804:	d103      	bne.n	80e <list_insert_at_end+0xe>
     806:	6001      	str	r1, [r0, #0]
     808:	600b      	str	r3, [r1, #0]
     80a:	4770      	bx	lr
     80c:	0013      	movs	r3, r2
     80e:	681a      	ldr	r2, [r3, #0]
     810:	2a00      	cmp	r2, #0
     812:	d1fb      	bne.n	80c <list_insert_at_end+0xc>
     814:	6019      	str	r1, [r3, #0]
     816:	600a      	str	r2, [r1, #0]
     818:	e7f7      	b.n	80a <list_insert_at_end+0xa>
	...

0000081c <_sbrk>:
     81c:	4b05      	ldr	r3, [pc, #20]	; (834 <_sbrk+0x18>)
     81e:	0002      	movs	r2, r0
     820:	6819      	ldr	r1, [r3, #0]
     822:	2900      	cmp	r1, #0
     824:	d101      	bne.n	82a <_sbrk+0xe>
     826:	4904      	ldr	r1, [pc, #16]	; (838 <_sbrk+0x1c>)
     828:	6019      	str	r1, [r3, #0]
     82a:	6818      	ldr	r0, [r3, #0]
     82c:	1882      	adds	r2, r0, r2
     82e:	601a      	str	r2, [r3, #0]
     830:	4770      	bx	lr
     832:	46c0      	nop			; (mov r8, r8)
     834:	20000298 	.word	0x20000298
     838:	20000a20 	.word	0x20000a20

0000083c <_close>:
     83c:	2001      	movs	r0, #1
     83e:	4240      	negs	r0, r0
     840:	4770      	bx	lr

00000842 <_fstat>:
     842:	2380      	movs	r3, #128	; 0x80
     844:	019b      	lsls	r3, r3, #6
     846:	2000      	movs	r0, #0
     848:	604b      	str	r3, [r1, #4]
     84a:	4770      	bx	lr

0000084c <_isatty>:
     84c:	2001      	movs	r0, #1
     84e:	4770      	bx	lr

00000850 <_lseek>:
     850:	2000      	movs	r0, #0
     852:	4770      	bx	lr

00000854 <_exit>:
     854:	0001      	movs	r1, r0
     856:	b510      	push	{r4, lr}
     858:	4801      	ldr	r0, [pc, #4]	; (860 <_exit+0xc>)
     85a:	4b02      	ldr	r3, [pc, #8]	; (864 <_exit+0x10>)
     85c:	4798      	blx	r3
     85e:	e7fe      	b.n	85e <_exit+0xa>
     860:	00003868 	.word	0x00003868
     864:	00002b39 	.word	0x00002b39

00000868 <_get_cycles_for_ms>:
     868:	0003      	movs	r3, r0
     86a:	20c8      	movs	r0, #200	; 0xc8
     86c:	0080      	lsls	r0, r0, #2
     86e:	4358      	muls	r0, r3
     870:	b510      	push	{r4, lr}
     872:	4b03      	ldr	r3, [pc, #12]	; (880 <_get_cycles_for_ms+0x18>)
     874:	3002      	adds	r0, #2
     876:	2103      	movs	r1, #3
     878:	4798      	blx	r3
     87a:	230a      	movs	r3, #10
     87c:	4358      	muls	r0, r3
     87e:	bd10      	pop	{r4, pc}
     880:	00002811 	.word	0x00002811

00000884 <_delay_cycles>:
     884:	3901      	subs	r1, #1
     886:	d8fd      	bhi.n	884 <_delay_cycles>
     888:	4770      	bx	lr
	...

0000088c <_init_chip>:
     88c:	b510      	push	{r4, lr}
     88e:	4b06      	ldr	r3, [pc, #24]	; (8a8 <_init_chip+0x1c>)
     890:	685a      	ldr	r2, [r3, #4]
     892:	605a      	str	r2, [r3, #4]
     894:	4b05      	ldr	r3, [pc, #20]	; (8ac <_init_chip+0x20>)
     896:	4798      	blx	r3
     898:	4b05      	ldr	r3, [pc, #20]	; (8b0 <_init_chip+0x24>)
     89a:	4798      	blx	r3
     89c:	4b05      	ldr	r3, [pc, #20]	; (8b4 <_init_chip+0x28>)
     89e:	4798      	blx	r3
     8a0:	203f      	movs	r0, #63	; 0x3f
     8a2:	4b05      	ldr	r3, [pc, #20]	; (8b8 <_init_chip+0x2c>)
     8a4:	4798      	blx	r3
     8a6:	bd10      	pop	{r4, pc}
     8a8:	41004000 	.word	0x41004000
     8ac:	000008f9 	.word	0x000008f9
     8b0:	00000919 	.word	0x00000919
     8b4:	00000959 	.word	0x00000959
     8b8:	000008bd 	.word	0x000008bd

000008bc <_gclk_init_generators_by_fref>:
     8bc:	07c3      	lsls	r3, r0, #31
     8be:	d40b      	bmi.n	8d8 <_gclk_init_generators_by_fref+0x1c>
     8c0:	0783      	lsls	r3, r0, #30
     8c2:	d508      	bpl.n	8d6 <_gclk_init_generators_by_fref+0x1a>
     8c4:	2202      	movs	r2, #2
     8c6:	4b0a      	ldr	r3, [pc, #40]	; (8f0 <_gclk_init_generators_by_fref+0x34>)
     8c8:	32ff      	adds	r2, #255	; 0xff
     8ca:	609a      	str	r2, [r3, #8]
     8cc:	4a09      	ldr	r2, [pc, #36]	; (8f4 <_gclk_init_generators_by_fref+0x38>)
     8ce:	605a      	str	r2, [r3, #4]
     8d0:	785a      	ldrb	r2, [r3, #1]
     8d2:	09d2      	lsrs	r2, r2, #7
     8d4:	d1fc      	bne.n	8d0 <_gclk_init_generators_by_fref+0x14>
     8d6:	4770      	bx	lr
     8d8:	2280      	movs	r2, #128	; 0x80
     8da:	4b05      	ldr	r3, [pc, #20]	; (8f0 <_gclk_init_generators_by_fref+0x34>)
     8dc:	0052      	lsls	r2, r2, #1
     8de:	609a      	str	r2, [r3, #8]
     8e0:	2283      	movs	r2, #131	; 0x83
     8e2:	0252      	lsls	r2, r2, #9
     8e4:	605a      	str	r2, [r3, #4]
     8e6:	785a      	ldrb	r2, [r3, #1]
     8e8:	09d2      	lsrs	r2, r2, #7
     8ea:	d1fc      	bne.n	8e6 <_gclk_init_generators_by_fref+0x2a>
     8ec:	e7e8      	b.n	8c0 <_gclk_init_generators_by_fref+0x4>
     8ee:	46c0      	nop			; (mov r8, r8)
     8f0:	40000c00 	.word	0x40000c00
     8f4:	00210701 	.word	0x00210701

000008f8 <_pm_init>:
     8f8:	4b06      	ldr	r3, [pc, #24]	; (914 <_pm_init+0x1c>)
     8fa:	7a1a      	ldrb	r2, [r3, #8]
     8fc:	b2d2      	uxtb	r2, r2
     8fe:	721a      	strb	r2, [r3, #8]
     900:	7a5a      	ldrb	r2, [r3, #9]
     902:	b2d2      	uxtb	r2, r2
     904:	725a      	strb	r2, [r3, #9]
     906:	7a9a      	ldrb	r2, [r3, #10]
     908:	b2d2      	uxtb	r2, r2
     90a:	729a      	strb	r2, [r3, #10]
     90c:	7ada      	ldrb	r2, [r3, #11]
     90e:	b2d2      	uxtb	r2, r2
     910:	72da      	strb	r2, [r3, #11]
     912:	4770      	bx	lr
     914:	40000400 	.word	0x40000400

00000918 <_sysctrl_init_sources>:
     918:	4b0d      	ldr	r3, [pc, #52]	; (950 <_sysctrl_init_sources+0x38>)
     91a:	480e      	ldr	r0, [pc, #56]	; (954 <_sysctrl_init_sources+0x3c>)
     91c:	6a19      	ldr	r1, [r3, #32]
     91e:	6a1a      	ldr	r2, [r3, #32]
     920:	4001      	ands	r1, r0
     922:	2002      	movs	r0, #2
     924:	0f92      	lsrs	r2, r2, #30
     926:	0792      	lsls	r2, r2, #30
     928:	4302      	orrs	r2, r0
     92a:	430a      	orrs	r2, r1
     92c:	211f      	movs	r1, #31
     92e:	621a      	str	r2, [r3, #32]
     930:	699a      	ldr	r2, [r3, #24]
     932:	4310      	orrs	r0, r2
     934:	6198      	str	r0, [r3, #24]
     936:	7f1a      	ldrb	r2, [r3, #28]
     938:	400a      	ands	r2, r1
     93a:	771a      	strb	r2, [r3, #28]
     93c:	2208      	movs	r2, #8
     93e:	68d9      	ldr	r1, [r3, #12]
     940:	4211      	tst	r1, r2
     942:	d0fc      	beq.n	93e <_sysctrl_init_sources+0x26>
     944:	2280      	movs	r2, #128	; 0x80
     946:	6a19      	ldr	r1, [r3, #32]
     948:	430a      	orrs	r2, r1
     94a:	621a      	str	r2, [r3, #32]
     94c:	4770      	bx	lr
     94e:	46c0      	nop			; (mov r8, r8)
     950:	40000800 	.word	0x40000800
     954:	0fff0000 	.word	0x0fff0000

00000958 <_sysctrl_init_referenced_generators>:
     958:	2202      	movs	r2, #2
     95a:	4b16      	ldr	r3, [pc, #88]	; (9b4 <_sysctrl_init_referenced_generators+0x5c>)
     95c:	849a      	strh	r2, [r3, #36]	; 0x24
     95e:	320e      	adds	r2, #14
     960:	68d9      	ldr	r1, [r3, #12]
     962:	4211      	tst	r1, r2
     964:	d0fc      	beq.n	960 <_sysctrl_init_referenced_generators+0x8>
     966:	4a14      	ldr	r2, [pc, #80]	; (9b8 <_sysctrl_init_referenced_generators+0x60>)
     968:	62da      	str	r2, [r3, #44]	; 0x2c
     96a:	4a14      	ldr	r2, [pc, #80]	; (9bc <_sysctrl_init_referenced_generators+0x64>)
     96c:	6812      	ldr	r2, [r2, #0]
     96e:	0e92      	lsrs	r2, r2, #26
     970:	2a3f      	cmp	r2, #63	; 0x3f
     972:	d00f      	beq.n	994 <_sysctrl_init_referenced_generators+0x3c>
     974:	2180      	movs	r1, #128	; 0x80
     976:	0292      	lsls	r2, r2, #10
     978:	0089      	lsls	r1, r1, #2
     97a:	430a      	orrs	r2, r1
     97c:	629a      	str	r2, [r3, #40]	; 0x28
     97e:	2293      	movs	r2, #147	; 0x93
     980:	0052      	lsls	r2, r2, #1
     982:	849a      	strh	r2, [r3, #36]	; 0x24
     984:	8c9a      	ldrh	r2, [r3, #36]	; 0x24
     986:	0752      	lsls	r2, r2, #29
     988:	d407      	bmi.n	99a <_sysctrl_init_referenced_generators+0x42>
     98a:	2210      	movs	r2, #16
     98c:	68d9      	ldr	r1, [r3, #12]
     98e:	4211      	tst	r1, r2
     990:	d0fc      	beq.n	98c <_sysctrl_init_referenced_generators+0x34>
     992:	e006      	b.n	9a2 <_sysctrl_init_referenced_generators+0x4a>
     994:	22fc      	movs	r2, #252	; 0xfc
     996:	01d2      	lsls	r2, r2, #7
     998:	e7f0      	b.n	97c <_sysctrl_init_referenced_generators+0x24>
     99a:	2210      	movs	r2, #16
     99c:	68d9      	ldr	r1, [r3, #12]
     99e:	4211      	tst	r1, r2
     9a0:	d0fc      	beq.n	99c <_sysctrl_init_referenced_generators+0x44>
     9a2:	4907      	ldr	r1, [pc, #28]	; (9c0 <_sysctrl_init_referenced_generators+0x68>)
     9a4:	784a      	ldrb	r2, [r1, #1]
     9a6:	09d2      	lsrs	r2, r2, #7
     9a8:	d1fc      	bne.n	9a4 <_sysctrl_init_referenced_generators+0x4c>
     9aa:	2102      	movs	r1, #2
     9ac:	699a      	ldr	r2, [r3, #24]
     9ae:	438a      	bics	r2, r1
     9b0:	619a      	str	r2, [r3, #24]
     9b2:	4770      	bx	lr
     9b4:	40000800 	.word	0x40000800
     9b8:	0401bb80 	.word	0x0401bb80
     9bc:	00806024 	.word	0x00806024
     9c0:	40000c00 	.word	0x40000c00

000009c4 <_dummy_func_no_return>:
     9c4:	2000      	movs	r0, #0
     9c6:	4770      	bx	lr

000009c8 <_usb_d_dev_wait_dfll_rdy>:
     9c8:	4b07      	ldr	r3, [pc, #28]	; (9e8 <_usb_d_dev_wait_dfll_rdy+0x20>)
     9ca:	8c9a      	ldrh	r2, [r3, #36]	; 0x24
     9cc:	0692      	lsls	r2, r2, #26
     9ce:	d405      	bmi.n	9dc <_usb_d_dev_wait_dfll_rdy+0x14>
     9d0:	21d0      	movs	r1, #208	; 0xd0
     9d2:	68da      	ldr	r2, [r3, #12]
     9d4:	400a      	ands	r2, r1
     9d6:	2ad0      	cmp	r2, #208	; 0xd0
     9d8:	d1fb      	bne.n	9d2 <_usb_d_dev_wait_dfll_rdy+0xa>
     9da:	4770      	bx	lr
     9dc:	2210      	movs	r2, #16
     9de:	68d9      	ldr	r1, [r3, #12]
     9e0:	4211      	tst	r1, r2
     9e2:	d0fc      	beq.n	9de <_usb_d_dev_wait_dfll_rdy+0x16>
     9e4:	e7f9      	b.n	9da <_usb_d_dev_wait_dfll_rdy+0x12>
     9e6:	46c0      	nop			; (mov r8, r8)
     9e8:	40000800 	.word	0x40000800

000009ec <_usb_d_dev_ept>:
     9ec:	2800      	cmp	r0, #0
     9ee:	d003      	beq.n	9f8 <_usb_d_dev_ept+0xc>
     9f0:	2900      	cmp	r1, #0
     9f2:	d001      	beq.n	9f8 <_usb_d_dev_ept+0xc>
     9f4:	3002      	adds	r0, #2
     9f6:	b2c0      	uxtb	r0, r0
     9f8:	2314      	movs	r3, #20
     9fa:	3001      	adds	r0, #1
     9fc:	4343      	muls	r3, r0
     9fe:	4801      	ldr	r0, [pc, #4]	; (a04 <_usb_d_dev_ept+0x18>)
     a00:	18c0      	adds	r0, r0, r3
     a02:	4770      	bx	lr
     a04:	2000029c 	.word	0x2000029c

00000a08 <_usb_d_dev_handle_setup>:
     a08:	230f      	movs	r3, #15
     a0a:	b570      	push	{r4, r5, r6, lr}
     a0c:	0001      	movs	r1, r0
     a0e:	7c80      	ldrb	r0, [r0, #18]
     a10:	2507      	movs	r5, #7
     a12:	4003      	ands	r3, r0
     a14:	001a      	movs	r2, r3
     a16:	7ccc      	ldrb	r4, [r1, #19]
     a18:	3208      	adds	r2, #8
     a1a:	4025      	ands	r5, r4
     a1c:	015b      	lsls	r3, r3, #5
     a1e:	2d01      	cmp	r5, #1
     a20:	d008      	beq.n	a34 <_usb_d_dev_handle_setup+0x2c>
     a22:	4914      	ldr	r1, [pc, #80]	; (a74 <_usb_d_dev_handle_setup+0x6c>)
     a24:	0152      	lsls	r2, r2, #5
     a26:	1852      	adds	r2, r2, r1
     a28:	2110      	movs	r1, #16
     a2a:	71d1      	strb	r1, [r2, #7]
     a2c:	4a12      	ldr	r2, [pc, #72]	; (a78 <_usb_d_dev_handle_setup+0x70>)
     a2e:	189b      	adds	r3, r3, r2
     a30:	7259      	strb	r1, [r3, #9]
     a32:	bd70      	pop	{r4, r5, r6, pc}
     a34:	2540      	movs	r5, #64	; 0x40
     a36:	422c      	tst	r4, r5
     a38:	d006      	beq.n	a48 <_usb_d_dev_handle_setup+0x40>
     a3a:	2680      	movs	r6, #128	; 0x80
     a3c:	43ac      	bics	r4, r5
     a3e:	74cc      	strb	r4, [r1, #19]
     a40:	4c0d      	ldr	r4, [pc, #52]	; (a78 <_usb_d_dev_handle_setup+0x70>)
     a42:	191c      	adds	r4, r3, r4
     a44:	7166      	strb	r6, [r4, #5]
     a46:	71a5      	strb	r5, [r4, #6]
     a48:	2508      	movs	r5, #8
     a4a:	7ccc      	ldrb	r4, [r1, #19]
     a4c:	0152      	lsls	r2, r2, #5
     a4e:	43ac      	bics	r4, r5
     a50:	74cc      	strb	r4, [r1, #19]
     a52:	2400      	movs	r4, #0
     a54:	4909      	ldr	r1, [pc, #36]	; (a7c <_usb_d_dev_handle_setup+0x74>)
     a56:	3130      	adds	r1, #48	; 0x30
     a58:	18c9      	adds	r1, r1, r3
     a5a:	728c      	strb	r4, [r1, #10]
     a5c:	768c      	strb	r4, [r1, #26]
     a5e:	4905      	ldr	r1, [pc, #20]	; (a74 <_usb_d_dev_handle_setup+0x6c>)
     a60:	1852      	adds	r2, r2, r1
     a62:	216f      	movs	r1, #111	; 0x6f
     a64:	71d1      	strb	r1, [r2, #7]
     a66:	4a04      	ldr	r2, [pc, #16]	; (a78 <_usb_d_dev_handle_setup+0x70>)
     a68:	189b      	adds	r3, r3, r2
     a6a:	7259      	strb	r1, [r3, #9]
     a6c:	4b04      	ldr	r3, [pc, #16]	; (a80 <_usb_d_dev_handle_setup+0x78>)
     a6e:	689b      	ldr	r3, [r3, #8]
     a70:	4798      	blx	r3
     a72:	e7de      	b.n	a32 <_usb_d_dev_handle_setup+0x2a>
     a74:	41005000 	.word	0x41005000
     a78:	410050ff 	.word	0x410050ff
     a7c:	2000049c 	.word	0x2000049c
     a80:	2000029c 	.word	0x2000029c

00000a84 <_usb_d_dev_handle_stall>:
     a84:	2220      	movs	r2, #32
     a86:	230f      	movs	r3, #15
     a88:	408a      	lsls	r2, r1
     a8a:	b510      	push	{r4, lr}
     a8c:	0004      	movs	r4, r0
     a8e:	7c80      	ldrb	r0, [r0, #18]
     a90:	4905      	ldr	r1, [pc, #20]	; (aa8 <_usb_d_dev_handle_stall+0x24>)
     a92:	4003      	ands	r3, r0
     a94:	015b      	lsls	r3, r3, #5
     a96:	185b      	adds	r3, r3, r1
     a98:	b2d2      	uxtb	r2, r2
     a9a:	725a      	strb	r2, [r3, #9]
     a9c:	4b03      	ldr	r3, [pc, #12]	; (aac <_usb_d_dev_handle_stall+0x28>)
     a9e:	68a2      	ldr	r2, [r4, #8]
     aa0:	691b      	ldr	r3, [r3, #16]
     aa2:	2101      	movs	r1, #1
     aa4:	4798      	blx	r3
     aa6:	bd10      	pop	{r4, pc}
     aa8:	410050ff 	.word	0x410050ff
     aac:	2000029c 	.word	0x2000029c

00000ab0 <_usb_d_dev_trans_done>:
     ab0:	b510      	push	{r4, lr}
     ab2:	0003      	movs	r3, r0
     ab4:	7c80      	ldrb	r0, [r0, #18]
     ab6:	28ff      	cmp	r0, #255	; 0xff
     ab8:	d009      	beq.n	ace <_usb_d_dev_trans_done+0x1e>
     aba:	2440      	movs	r4, #64	; 0x40
     abc:	7cda      	ldrb	r2, [r3, #19]
     abe:	4222      	tst	r2, r4
     ac0:	d005      	beq.n	ace <_usb_d_dev_trans_done+0x1e>
     ac2:	43a2      	bics	r2, r4
     ac4:	74da      	strb	r2, [r3, #19]
     ac6:	4a02      	ldr	r2, [pc, #8]	; (ad0 <_usb_d_dev_trans_done+0x20>)
     ac8:	6914      	ldr	r4, [r2, #16]
     aca:	689a      	ldr	r2, [r3, #8]
     acc:	47a0      	blx	r4
     ace:	bd10      	pop	{r4, pc}
     ad0:	2000029c 	.word	0x2000029c

00000ad4 <_usb_d_dev_trans_stop>:
     ad4:	b5f7      	push	{r0, r1, r2, r4, r5, r6, r7, lr}
     ad6:	2425      	movs	r4, #37	; 0x25
     ad8:	ad01      	add	r5, sp, #4
     ada:	7c83      	ldrb	r3, [r0, #18]
     adc:	702c      	strb	r4, [r5, #0]
     ade:	1924      	adds	r4, r4, r4
     ae0:	4694      	mov	ip, r2
     ae2:	706c      	strb	r4, [r5, #1]
     ae4:	2bff      	cmp	r3, #255	; 0xff
     ae6:	d01a      	beq.n	b1e <_usb_d_dev_trans_stop+0x4a>
     ae8:	2740      	movs	r7, #64	; 0x40
     aea:	7cc4      	ldrb	r4, [r0, #19]
     aec:	423c      	tst	r4, r7
     aee:	d016      	beq.n	b1e <_usb_d_dev_trans_stop+0x4a>
     af0:	240f      	movs	r4, #15
     af2:	4023      	ands	r3, r4
     af4:	001c      	movs	r4, r3
     af6:	3408      	adds	r4, #8
     af8:	0166      	lsls	r6, r4, #5
     afa:	2900      	cmp	r1, #0
     afc:	d010      	beq.n	b20 <_usb_d_dev_trans_stop+0x4c>
     afe:	4f0a      	ldr	r7, [pc, #40]	; (b28 <_usb_d_dev_trans_stop+0x54>)
     b00:	19f6      	adds	r6, r6, r7
     b02:	2780      	movs	r7, #128	; 0x80
     b04:	7137      	strb	r7, [r6, #4]
     b06:	4a08      	ldr	r2, [pc, #32]	; (b28 <_usb_d_dev_trans_stop+0x54>)
     b08:	0164      	lsls	r4, r4, #5
     b0a:	18a4      	adds	r4, r4, r2
     b0c:	4a07      	ldr	r2, [pc, #28]	; (b2c <_usb_d_dev_trans_stop+0x58>)
     b0e:	5c69      	ldrb	r1, [r5, r1]
     b10:	015b      	lsls	r3, r3, #5
     b12:	189b      	adds	r3, r3, r2
     b14:	71e1      	strb	r1, [r4, #7]
     b16:	7259      	strb	r1, [r3, #9]
     b18:	4661      	mov	r1, ip
     b1a:	4b05      	ldr	r3, [pc, #20]	; (b30 <_usb_d_dev_trans_stop+0x5c>)
     b1c:	4798      	blx	r3
     b1e:	bdf7      	pop	{r0, r1, r2, r4, r5, r6, r7, pc}
     b20:	4a01      	ldr	r2, [pc, #4]	; (b28 <_usb_d_dev_trans_stop+0x54>)
     b22:	18b6      	adds	r6, r6, r2
     b24:	7177      	strb	r7, [r6, #5]
     b26:	e7ee      	b.n	b06 <_usb_d_dev_trans_stop+0x32>
     b28:	41005000 	.word	0x41005000
     b2c:	410050ff 	.word	0x410050ff
     b30:	00000ab1 	.word	0x00000ab1

00000b34 <_usb_d_dev_handle_trfail>:
     b34:	b5f7      	push	{r0, r1, r2, r4, r5, r6, r7, lr}
     b36:	220f      	movs	r2, #15
     b38:	7c84      	ldrb	r4, [r0, #18]
     b3a:	af01      	add	r7, sp, #4
     b3c:	4014      	ands	r4, r2
     b3e:	3a0b      	subs	r2, #11
     b40:	703a      	strb	r2, [r7, #0]
     b42:	3204      	adds	r2, #4
     b44:	707a      	strb	r2, [r7, #1]
     b46:	0022      	movs	r2, r4
     b48:	3208      	adds	r2, #8
     b4a:	000b      	movs	r3, r1
     b4c:	4d2d      	ldr	r5, [pc, #180]	; (c04 <_usb_d_dev_handle_trfail+0xd0>)
     b4e:	0161      	lsls	r1, r4, #5
     b50:	0156      	lsls	r6, r2, #5
     b52:	2b00      	cmp	r3, #0
     b54:	d024      	beq.n	ba0 <_usb_d_dev_handle_trfail+0x6c>
     b56:	5dad      	ldrb	r5, [r5, r6]
     b58:	066d      	lsls	r5, r5, #25
     b5a:	0f6d      	lsrs	r5, r5, #29
     b5c:	4e2a      	ldr	r6, [pc, #168]	; (c08 <_usb_d_dev_handle_trfail+0xd4>)
     b5e:	3630      	adds	r6, #48	; 0x30
     b60:	46b4      	mov	ip, r6
     b62:	011e      	lsls	r6, r3, #4
     b64:	1876      	adds	r6, r6, r1
     b66:	44b4      	add	ip, r6
     b68:	4666      	mov	r6, ip
     b6a:	7ab6      	ldrb	r6, [r6, #10]
     b6c:	b2f6      	uxtb	r6, r6
     b6e:	2d02      	cmp	r5, #2
     b70:	d11a      	bne.n	ba8 <_usb_d_dev_handle_trfail+0x74>
     b72:	3d01      	subs	r5, #1
     b74:	422e      	tst	r6, r5
     b76:	d017      	beq.n	ba8 <_usb_d_dev_handle_trfail+0x74>
     b78:	4664      	mov	r4, ip
     b7a:	7aa4      	ldrb	r4, [r4, #10]
     b7c:	0152      	lsls	r2, r2, #5
     b7e:	43ac      	bics	r4, r5
     b80:	4665      	mov	r5, ip
     b82:	72ac      	strb	r4, [r5, #10]
     b84:	4d1f      	ldr	r5, [pc, #124]	; (c04 <_usb_d_dev_handle_trfail+0xd0>)
     b86:	5cfc      	ldrb	r4, [r7, r3]
     b88:	1952      	adds	r2, r2, r5
     b8a:	71d4      	strb	r4, [r2, #7]
     b8c:	4a1f      	ldr	r2, [pc, #124]	; (c0c <_usb_d_dev_handle_trfail+0xd8>)
     b8e:	1889      	adds	r1, r1, r2
     b90:	724c      	strb	r4, [r1, #9]
     b92:	1e59      	subs	r1, r3, #1
     b94:	418b      	sbcs	r3, r1
     b96:	2204      	movs	r2, #4
     b98:	b2d9      	uxtb	r1, r3
     b9a:	4b1d      	ldr	r3, [pc, #116]	; (c10 <_usb_d_dev_handle_trfail+0xdc>)
     b9c:	4798      	blx	r3
     b9e:	bdf7      	pop	{r0, r1, r2, r4, r5, r6, r7, pc}
     ba0:	5dae      	ldrb	r6, [r5, r6]
     ba2:	2507      	movs	r5, #7
     ba4:	4035      	ands	r5, r6
     ba6:	e7d9      	b.n	b5c <_usb_d_dev_handle_trfail+0x28>
     ba8:	2502      	movs	r5, #2
     baa:	402e      	ands	r6, r5
     bac:	d019      	beq.n	be2 <_usb_d_dev_handle_trfail+0xae>
     bae:	4666      	mov	r6, ip
     bb0:	7ab6      	ldrb	r6, [r6, #10]
     bb2:	7cc4      	ldrb	r4, [r0, #19]
     bb4:	43ae      	bics	r6, r5
     bb6:	4665      	mov	r5, ip
     bb8:	72ae      	strb	r6, [r5, #10]
     bba:	4e12      	ldr	r6, [pc, #72]	; (c04 <_usb_d_dev_handle_trfail+0xd0>)
     bbc:	5cfd      	ldrb	r5, [r7, r3]
     bbe:	0152      	lsls	r2, r2, #5
     bc0:	1992      	adds	r2, r2, r6
     bc2:	71d5      	strb	r5, [r2, #7]
     bc4:	4a11      	ldr	r2, [pc, #68]	; (c0c <_usb_d_dev_handle_trfail+0xd8>)
     bc6:	1889      	adds	r1, r1, r2
     bc8:	2207      	movs	r2, #7
     bca:	724d      	strb	r5, [r1, #9]
     bcc:	4022      	ands	r2, r4
     bce:	2a01      	cmp	r2, #1
     bd0:	d1e5      	bne.n	b9e <_usb_d_dev_handle_trfail+0x6a>
     bd2:	0662      	lsls	r2, r4, #25
     bd4:	d5e3      	bpl.n	b9e <_usb_d_dev_handle_trfail+0x6a>
     bd6:	7cc1      	ldrb	r1, [r0, #19]
     bd8:	09c9      	lsrs	r1, r1, #7
     bda:	428b      	cmp	r3, r1
     bdc:	d0df      	beq.n	b9e <_usb_d_dev_handle_trfail+0x6a>
     bde:	2200      	movs	r2, #0
     be0:	e7db      	b.n	b9a <_usb_d_dev_handle_trfail+0x66>
     be2:	0060      	lsls	r0, r4, #1
     be4:	4a08      	ldr	r2, [pc, #32]	; (c08 <_usb_d_dev_handle_trfail+0xd4>)
     be6:	18c0      	adds	r0, r0, r3
     be8:	3230      	adds	r2, #48	; 0x30
     bea:	0100      	lsls	r0, r0, #4
     bec:	1812      	adds	r2, r2, r0
     bee:	7296      	strb	r6, [r2, #10]
     bf0:	4a08      	ldr	r2, [pc, #32]	; (c14 <_usb_d_dev_handle_trfail+0xe0>)
     bf2:	0164      	lsls	r4, r4, #5
     bf4:	18a4      	adds	r4, r4, r2
     bf6:	4a05      	ldr	r2, [pc, #20]	; (c0c <_usb_d_dev_handle_trfail+0xd8>)
     bf8:	5cfb      	ldrb	r3, [r7, r3]
     bfa:	1889      	adds	r1, r1, r2
     bfc:	71e3      	strb	r3, [r4, #7]
     bfe:	724b      	strb	r3, [r1, #9]
     c00:	e7cd      	b.n	b9e <_usb_d_dev_handle_trfail+0x6a>
     c02:	46c0      	nop			; (mov r8, r8)
     c04:	41005000 	.word	0x41005000
     c08:	2000049c 	.word	0x2000049c
     c0c:	410050ff 	.word	0x410050ff
     c10:	00000ad5 	.word	0x00000ad5
     c14:	41005100 	.word	0x41005100

00000c18 <_usb_d_dev_reset_epts>:
     c18:	b570      	push	{r4, r5, r6, lr}
     c1a:	4d0b      	ldr	r5, [pc, #44]	; (c48 <_usb_d_dev_reset_epts+0x30>)
     c1c:	238c      	movs	r3, #140	; 0x8c
     c1e:	002c      	movs	r4, r5
     c20:	26ff      	movs	r6, #255	; 0xff
     c22:	009b      	lsls	r3, r3, #2
     c24:	3414      	adds	r4, #20
     c26:	18ed      	adds	r5, r5, r3
     c28:	2103      	movs	r1, #3
     c2a:	0020      	movs	r0, r4
     c2c:	4b07      	ldr	r3, [pc, #28]	; (c4c <_usb_d_dev_reset_epts+0x34>)
     c2e:	4798      	blx	r3
     c30:	2100      	movs	r1, #0
     c32:	74a6      	strb	r6, [r4, #18]
     c34:	74e1      	strb	r1, [r4, #19]
     c36:	3414      	adds	r4, #20
     c38:	42ac      	cmp	r4, r5
     c3a:	d1f5      	bne.n	c28 <_usb_d_dev_reset_epts+0x10>
     c3c:	4804      	ldr	r0, [pc, #16]	; (c50 <_usb_d_dev_reset_epts+0x38>)
     c3e:	2260      	movs	r2, #96	; 0x60
     c40:	4b04      	ldr	r3, [pc, #16]	; (c54 <_usb_d_dev_reset_epts+0x3c>)
     c42:	3030      	adds	r0, #48	; 0x30
     c44:	4798      	blx	r3
     c46:	bd70      	pop	{r4, r5, r6, pc}
     c48:	2000029c 	.word	0x2000029c
     c4c:	00000ab1 	.word	0x00000ab1
     c50:	2000049c 	.word	0x2000049c
     c54:	000029d7 	.word	0x000029d7

00000c58 <_usb_d_dev_in_next>:
     c58:	b5f0      	push	{r4, r5, r6, r7, lr}
     c5a:	250f      	movs	r5, #15
     c5c:	b085      	sub	sp, #20
     c5e:	9100      	str	r1, [sp, #0]
     c60:	7c83      	ldrb	r3, [r0, #18]
     c62:	0004      	movs	r4, r0
     c64:	401d      	ands	r5, r3
     c66:	9301      	str	r3, [sp, #4]
     c68:	016b      	lsls	r3, r5, #5
     c6a:	9302      	str	r3, [sp, #8]
     c6c:	2300      	movs	r3, #0
     c6e:	4299      	cmp	r1, r3
     c70:	d006      	beq.n	c80 <_usb_d_dev_in_next+0x28>
     c72:	4b4d      	ldr	r3, [pc, #308]	; (da8 <_usb_d_dev_in_next+0x150>)
     c74:	016a      	lsls	r2, r5, #5
     c76:	3330      	adds	r3, #48	; 0x30
     c78:	189b      	adds	r3, r3, r2
     c7a:	695b      	ldr	r3, [r3, #20]
     c7c:	049b      	lsls	r3, r3, #18
     c7e:	0c9b      	lsrs	r3, r3, #18
     c80:	8a26      	ldrh	r6, [r4, #16]
     c82:	4a4a      	ldr	r2, [pc, #296]	; (dac <_usb_d_dev_in_next+0x154>)
     c84:	9603      	str	r6, [sp, #12]
     c86:	4296      	cmp	r6, r2
     c88:	d002      	beq.n	c90 <_usb_d_dev_in_next+0x38>
     c8a:	1e72      	subs	r2, r6, #1
     c8c:	b292      	uxth	r2, r2
     c8e:	9203      	str	r2, [sp, #12]
     c90:	7ce2      	ldrb	r2, [r4, #19]
     c92:	4694      	mov	ip, r2
     c94:	2207      	movs	r2, #7
     c96:	4661      	mov	r1, ip
     c98:	4011      	ands	r1, r2
     c9a:	9a00      	ldr	r2, [sp, #0]
     c9c:	9102      	str	r1, [sp, #8]
     c9e:	2a00      	cmp	r2, #0
     ca0:	d004      	beq.n	cac <_usb_d_dev_in_next+0x54>
     ca2:	4943      	ldr	r1, [pc, #268]	; (db0 <_usb_d_dev_in_next+0x158>)
     ca4:	016a      	lsls	r2, r5, #5
     ca6:	1852      	adds	r2, r2, r1
     ca8:	2102      	movs	r1, #2
     caa:	71d1      	strb	r1, [r2, #7]
     cac:	68a2      	ldr	r2, [r4, #8]
     cae:	6867      	ldr	r7, [r4, #4]
     cb0:	1899      	adds	r1, r3, r2
     cb2:	60a1      	str	r1, [r4, #8]
     cb4:	016a      	lsls	r2, r5, #5
     cb6:	42b9      	cmp	r1, r7
     cb8:	d240      	bcs.n	d3c <_usb_d_dev_in_next+0xe4>
     cba:	4660      	mov	r0, ip
     cbc:	1a7f      	subs	r7, r7, r1
     cbe:	b2bb      	uxth	r3, r7
     cc0:	4f39      	ldr	r7, [pc, #228]	; (da8 <_usb_d_dev_in_next+0x150>)
     cc2:	0680      	lsls	r0, r0, #26
     cc4:	d52e      	bpl.n	d24 <_usb_d_dev_in_next+0xcc>
     cc6:	1c32      	adds	r2, r6, #0
     cc8:	429e      	cmp	r6, r3
     cca:	d900      	bls.n	cce <_usb_d_dev_in_next+0x76>
     ccc:	1c1a      	adds	r2, r3, #0
     cce:	6823      	ldr	r3, [r4, #0]
     cd0:	b296      	uxth	r6, r2
     cd2:	1859      	adds	r1, r3, r1
     cd4:	0032      	movs	r2, r6
     cd6:	4b37      	ldr	r3, [pc, #220]	; (db4 <_usb_d_dev_in_next+0x15c>)
     cd8:	68e0      	ldr	r0, [r4, #12]
     cda:	4798      	blx	r3
     cdc:	4b32      	ldr	r3, [pc, #200]	; (da8 <_usb_d_dev_in_next+0x150>)
     cde:	68e2      	ldr	r2, [r4, #12]
     ce0:	0169      	lsls	r1, r5, #5
     ce2:	185b      	adds	r3, r3, r1
     ce4:	641a      	str	r2, [r3, #64]	; 0x40
     ce6:	016b      	lsls	r3, r5, #5
     ce8:	18ff      	adds	r7, r7, r3
     cea:	6c7b      	ldr	r3, [r7, #68]	; 0x44
     cec:	04b6      	lsls	r6, r6, #18
     cee:	0cb2      	lsrs	r2, r6, #18
     cf0:	0b9e      	lsrs	r6, r3, #14
     cf2:	03b6      	lsls	r6, r6, #14
     cf4:	4316      	orrs	r6, r2
     cf6:	647e      	str	r6, [r7, #68]	; 0x44
     cf8:	6c7b      	ldr	r3, [r7, #68]	; 0x44
     cfa:	4a2f      	ldr	r2, [pc, #188]	; (db8 <_usb_d_dev_in_next+0x160>)
     cfc:	4013      	ands	r3, r2
     cfe:	647b      	str	r3, [r7, #68]	; 0x44
     d00:	9b00      	ldr	r3, [sp, #0]
     d02:	2b00      	cmp	r3, #0
     d04:	d108      	bne.n	d18 <_usb_d_dev_in_next+0xc0>
     d06:	9b02      	ldr	r3, [sp, #8]
     d08:	224e      	movs	r2, #78	; 0x4e
     d0a:	2b01      	cmp	r3, #1
     d0c:	d000      	beq.n	d10 <_usb_d_dev_in_next+0xb8>
     d0e:	3a04      	subs	r2, #4
     d10:	492a      	ldr	r1, [pc, #168]	; (dbc <_usb_d_dev_in_next+0x164>)
     d12:	016b      	lsls	r3, r5, #5
     d14:	185b      	adds	r3, r3, r1
     d16:	729a      	strb	r2, [r3, #10]
     d18:	4b25      	ldr	r3, [pc, #148]	; (db0 <_usb_d_dev_in_next+0x158>)
     d1a:	016d      	lsls	r5, r5, #5
     d1c:	18ed      	adds	r5, r5, r3
     d1e:	2380      	movs	r3, #128	; 0x80
     d20:	716b      	strb	r3, [r5, #5]
     d22:	e03a      	b.n	d9a <_usb_d_dev_in_next+0x142>
     d24:	2080      	movs	r0, #128	; 0x80
     d26:	1c1e      	adds	r6, r3, #0
     d28:	0180      	lsls	r0, r0, #6
     d2a:	4283      	cmp	r3, r0
     d2c:	d900      	bls.n	d30 <_usb_d_dev_in_next+0xd8>
     d2e:	1c06      	adds	r6, r0, #0
     d30:	6823      	ldr	r3, [r4, #0]
     d32:	18ba      	adds	r2, r7, r2
     d34:	1859      	adds	r1, r3, r1
     d36:	b2b6      	uxth	r6, r6
     d38:	6411      	str	r1, [r2, #64]	; 0x40
     d3a:	e7d4      	b.n	ce6 <_usb_d_dev_in_next+0x8e>
     d3c:	2710      	movs	r7, #16
     d3e:	4660      	mov	r0, ip
     d40:	4238      	tst	r0, r7
     d42:	d00e      	beq.n	d62 <_usb_d_dev_in_next+0x10a>
     d44:	7ce3      	ldrb	r3, [r4, #19]
     d46:	016a      	lsls	r2, r5, #5
     d48:	43bb      	bics	r3, r7
     d4a:	74e3      	strb	r3, [r4, #19]
     d4c:	4b16      	ldr	r3, [pc, #88]	; (da8 <_usb_d_dev_in_next+0x150>)
     d4e:	491a      	ldr	r1, [pc, #104]	; (db8 <_usb_d_dev_in_next+0x160>)
     d50:	189b      	adds	r3, r3, r2
     d52:	6c5a      	ldr	r2, [r3, #68]	; 0x44
     d54:	0b92      	lsrs	r2, r2, #14
     d56:	0392      	lsls	r2, r2, #14
     d58:	645a      	str	r2, [r3, #68]	; 0x44
     d5a:	6c5a      	ldr	r2, [r3, #68]	; 0x44
     d5c:	400a      	ands	r2, r1
     d5e:	645a      	str	r2, [r3, #68]	; 0x44
     d60:	e7ce      	b.n	d00 <_usb_d_dev_in_next+0xa8>
     d62:	9802      	ldr	r0, [sp, #8]
     d64:	2801      	cmp	r0, #1
     d66:	d11a      	bne.n	d9e <_usb_d_dev_in_next+0x146>
     d68:	254b      	movs	r5, #75	; 0x4b
     d6a:	4814      	ldr	r0, [pc, #80]	; (dbc <_usb_d_dev_in_next+0x164>)
     d6c:	1812      	adds	r2, r2, r0
     d6e:	7255      	strb	r5, [r2, #9]
     d70:	9a03      	ldr	r2, [sp, #12]
     d72:	4013      	ands	r3, r2
     d74:	429e      	cmp	r6, r3
     d76:	d10c      	bne.n	d92 <_usb_d_dev_in_next+0x13a>
     d78:	2540      	movs	r5, #64	; 0x40
     d7a:	7ce3      	ldrb	r3, [r4, #19]
     d7c:	9801      	ldr	r0, [sp, #4]
     d7e:	43ab      	bics	r3, r5
     d80:	74e3      	strb	r3, [r4, #19]
     d82:	4b0f      	ldr	r3, [pc, #60]	; (dc0 <_usb_d_dev_in_next+0x168>)
     d84:	68db      	ldr	r3, [r3, #12]
     d86:	4798      	blx	r3
     d88:	2800      	cmp	r0, #0
     d8a:	d106      	bne.n	d9a <_usb_d_dev_in_next+0x142>
     d8c:	7ce3      	ldrb	r3, [r4, #19]
     d8e:	432b      	orrs	r3, r5
     d90:	74e3      	strb	r3, [r4, #19]
     d92:	2100      	movs	r1, #0
     d94:	0020      	movs	r0, r4
     d96:	4b0b      	ldr	r3, [pc, #44]	; (dc4 <_usb_d_dev_in_next+0x16c>)
     d98:	4798      	blx	r3
     d9a:	b005      	add	sp, #20
     d9c:	bdf0      	pop	{r4, r5, r6, r7, pc}
     d9e:	4807      	ldr	r0, [pc, #28]	; (dbc <_usb_d_dev_in_next+0x164>)
     da0:	254a      	movs	r5, #74	; 0x4a
     da2:	1812      	adds	r2, r2, r0
     da4:	e7e3      	b.n	d6e <_usb_d_dev_in_next+0x116>
     da6:	46c0      	nop			; (mov r8, r8)
     da8:	2000049c 	.word	0x2000049c
     dac:	000003ff 	.word	0x000003ff
     db0:	41005100 	.word	0x41005100
     db4:	000029c5 	.word	0x000029c5
     db8:	f0003fff 	.word	0xf0003fff
     dbc:	410050ff 	.word	0x410050ff
     dc0:	2000029c 	.word	0x2000029c
     dc4:	00000ab1 	.word	0x00000ab1

00000dc8 <_usb_d_dev_out_next>:
     dc8:	230f      	movs	r3, #15
     dca:	b5f0      	push	{r4, r5, r6, r7, lr}
     dcc:	7c82      	ldrb	r2, [r0, #18]
     dce:	b087      	sub	sp, #28
     dd0:	401a      	ands	r2, r3
     dd2:	0153      	lsls	r3, r2, #5
     dd4:	0004      	movs	r4, r0
     dd6:	1e0d      	subs	r5, r1, #0
     dd8:	9201      	str	r2, [sp, #4]
     dda:	9305      	str	r3, [sp, #20]
     ddc:	d068      	beq.n	eb0 <_usb_d_dev_out_next+0xe8>
     dde:	9a05      	ldr	r2, [sp, #20]
     de0:	4b67      	ldr	r3, [pc, #412]	; (f80 <_usb_d_dev_out_next+0x1b8>)
     de2:	189b      	adds	r3, r3, r2
     de4:	6b58      	ldr	r0, [r3, #52]	; 0x34
     de6:	0100      	lsls	r0, r0, #4
     de8:	0c82      	lsrs	r2, r0, #18
     dea:	9203      	str	r2, [sp, #12]
     dec:	6b5f      	ldr	r7, [r3, #52]	; 0x34
     dee:	04bf      	lsls	r7, r7, #18
     df0:	0cbf      	lsrs	r7, r7, #18
     df2:	8a23      	ldrh	r3, [r4, #16]
     df4:	9302      	str	r3, [sp, #8]
     df6:	9a02      	ldr	r2, [sp, #8]
     df8:	4b62      	ldr	r3, [pc, #392]	; (f84 <_usb_d_dev_out_next+0x1bc>)
     dfa:	429a      	cmp	r2, r3
     dfc:	d003      	beq.n	e06 <_usb_d_dev_out_next+0x3e>
     dfe:	0013      	movs	r3, r2
     e00:	3b01      	subs	r3, #1
     e02:	b29b      	uxth	r3, r3
     e04:	9302      	str	r3, [sp, #8]
     e06:	2307      	movs	r3, #7
     e08:	7ce2      	ldrb	r2, [r4, #19]
     e0a:	9e02      	ldr	r6, [sp, #8]
     e0c:	4013      	ands	r3, r2
     e0e:	403e      	ands	r6, r7
     e10:	9304      	str	r3, [sp, #16]
     e12:	2d00      	cmp	r5, #0
     e14:	d005      	beq.n	e22 <_usb_d_dev_out_next+0x5a>
     e16:	9b01      	ldr	r3, [sp, #4]
     e18:	495b      	ldr	r1, [pc, #364]	; (f88 <_usb_d_dev_out_next+0x1c0>)
     e1a:	015b      	lsls	r3, r3, #5
     e1c:	185b      	adds	r3, r3, r1
     e1e:	2101      	movs	r1, #1
     e20:	71d9      	strb	r1, [r3, #7]
     e22:	0693      	lsls	r3, r2, #26
     e24:	d50d      	bpl.n	e42 <_usb_d_dev_out_next+0x7a>
     e26:	6862      	ldr	r2, [r4, #4]
     e28:	2a00      	cmp	r2, #0
     e2a:	d00a      	beq.n	e42 <_usb_d_dev_out_next+0x7a>
     e2c:	68a0      	ldr	r0, [r4, #8]
     e2e:	6823      	ldr	r3, [r4, #0]
     e30:	1a12      	subs	r2, r2, r0
     e32:	b292      	uxth	r2, r2
     e34:	1818      	adds	r0, r3, r0
     e36:	68e1      	ldr	r1, [r4, #12]
     e38:	4296      	cmp	r6, r2
     e3a:	d200      	bcs.n	e3e <_usb_d_dev_out_next+0x76>
     e3c:	0032      	movs	r2, r6
     e3e:	4b53      	ldr	r3, [pc, #332]	; (f8c <_usb_d_dev_out_next+0x1c4>)
     e40:	4798      	blx	r3
     e42:	9a01      	ldr	r2, [sp, #4]
     e44:	6863      	ldr	r3, [r4, #4]
     e46:	0151      	lsls	r1, r2, #5
     e48:	2b00      	cmp	r3, #0
     e4a:	d134      	bne.n	eb6 <_usb_d_dev_out_next+0xee>
     e4c:	2010      	movs	r0, #16
     e4e:	7ce2      	ldrb	r2, [r4, #19]
     e50:	4202      	tst	r2, r0
     e52:	d100      	bne.n	e56 <_usb_d_dev_out_next+0x8e>
     e54:	e08b      	b.n	f6e <_usb_d_dev_out_next+0x1a6>
     e56:	4382      	bics	r2, r0
     e58:	3320      	adds	r3, #32
     e5a:	431a      	orrs	r2, r3
     e5c:	74e2      	strb	r2, [r4, #19]
     e5e:	4b48      	ldr	r3, [pc, #288]	; (f80 <_usb_d_dev_out_next+0x1b8>)
     e60:	9a05      	ldr	r2, [sp, #20]
     e62:	68e1      	ldr	r1, [r4, #12]
     e64:	189b      	adds	r3, r3, r2
     e66:	6319      	str	r1, [r3, #48]	; 0x30
     e68:	8a21      	ldrh	r1, [r4, #16]
     e6a:	001a      	movs	r2, r3
     e6c:	4848      	ldr	r0, [pc, #288]	; (f90 <_usb_d_dev_out_next+0x1c8>)
     e6e:	6b5b      	ldr	r3, [r3, #52]	; 0x34
     e70:	0489      	lsls	r1, r1, #18
     e72:	0909      	lsrs	r1, r1, #4
     e74:	4003      	ands	r3, r0
     e76:	430b      	orrs	r3, r1
     e78:	6353      	str	r3, [r2, #52]	; 0x34
     e7a:	6b53      	ldr	r3, [r2, #52]	; 0x34
     e7c:	0b9b      	lsrs	r3, r3, #14
     e7e:	039b      	lsls	r3, r3, #14
     e80:	6353      	str	r3, [r2, #52]	; 0x34
     e82:	2d00      	cmp	r5, #0
     e84:	d10d      	bne.n	ea2 <_usb_d_dev_out_next+0xda>
     e86:	9b01      	ldr	r3, [sp, #4]
     e88:	9904      	ldr	r1, [sp, #16]
     e8a:	015a      	lsls	r2, r3, #5
     e8c:	2325      	movs	r3, #37	; 0x25
     e8e:	2901      	cmp	r1, #1
     e90:	d104      	bne.n	e9c <_usb_d_dev_out_next+0xd4>
     e92:	4b3b      	ldr	r3, [pc, #236]	; (f80 <_usb_d_dev_out_next+0x1b8>)
     e94:	3330      	adds	r3, #48	; 0x30
     e96:	189b      	adds	r3, r3, r2
     e98:	769d      	strb	r5, [r3, #26]
     e9a:	232d      	movs	r3, #45	; 0x2d
     e9c:	493d      	ldr	r1, [pc, #244]	; (f94 <_usb_d_dev_out_next+0x1cc>)
     e9e:	1852      	adds	r2, r2, r1
     ea0:	7293      	strb	r3, [r2, #10]
     ea2:	9b01      	ldr	r3, [sp, #4]
     ea4:	4a38      	ldr	r2, [pc, #224]	; (f88 <_usb_d_dev_out_next+0x1c0>)
     ea6:	015b      	lsls	r3, r3, #5
     ea8:	189b      	adds	r3, r3, r2
     eaa:	2240      	movs	r2, #64	; 0x40
     eac:	711a      	strb	r2, [r3, #4]
     eae:	e01f      	b.n	ef0 <_usb_d_dev_out_next+0x128>
     eb0:	9103      	str	r1, [sp, #12]
     eb2:	000f      	movs	r7, r1
     eb4:	e79d      	b.n	df2 <_usb_d_dev_out_next+0x2a>
     eb6:	2d00      	cmp	r5, #0
     eb8:	d01c      	beq.n	ef4 <_usb_d_dev_out_next+0x12c>
     eba:	8a22      	ldrh	r2, [r4, #16]
     ebc:	42b2      	cmp	r2, r6
     ebe:	d919      	bls.n	ef4 <_usb_d_dev_out_next+0x12c>
     ec0:	2210      	movs	r2, #16
     ec2:	7ce3      	ldrb	r3, [r4, #19]
     ec4:	4393      	bics	r3, r2
     ec6:	74e3      	strb	r3, [r4, #19]
     ec8:	68a3      	ldr	r3, [r4, #8]
     eca:	19df      	adds	r7, r3, r7
     ecc:	60a7      	str	r7, [r4, #8]
     ece:	9b04      	ldr	r3, [sp, #16]
     ed0:	2b01      	cmp	r3, #1
     ed2:	d148      	bne.n	f66 <_usb_d_dev_out_next+0x19e>
     ed4:	4b2f      	ldr	r3, [pc, #188]	; (f94 <_usb_d_dev_out_next+0x1cc>)
     ed6:	18c9      	adds	r1, r1, r3
     ed8:	232d      	movs	r3, #45	; 0x2d
     eda:	724b      	strb	r3, [r1, #9]
     edc:	9b01      	ldr	r3, [sp, #4]
     ede:	2b00      	cmp	r3, #0
     ee0:	d102      	bne.n	ee8 <_usb_d_dev_out_next+0x120>
     ee2:	4b27      	ldr	r3, [pc, #156]	; (f80 <_usb_d_dev_out_next+0x1b8>)
     ee4:	68e2      	ldr	r2, [r4, #12]
     ee6:	631a      	str	r2, [r3, #48]	; 0x30
     ee8:	2100      	movs	r1, #0
     eea:	0020      	movs	r0, r4
     eec:	4b2a      	ldr	r3, [pc, #168]	; (f98 <_usb_d_dev_out_next+0x1d0>)
     eee:	4798      	blx	r3
     ef0:	b007      	add	sp, #28
     ef2:	bdf0      	pop	{r4, r5, r6, r7, pc}
     ef4:	68a6      	ldr	r6, [r4, #8]
     ef6:	9a03      	ldr	r2, [sp, #12]
     ef8:	46b4      	mov	ip, r6
     efa:	4462      	add	r2, ip
     efc:	0010      	movs	r0, r2
     efe:	60a2      	str	r2, [r4, #8]
     f00:	4293      	cmp	r3, r2
     f02:	d9e4      	bls.n	ece <_usb_d_dev_out_next+0x106>
     f04:	2620      	movs	r6, #32
     f06:	1a9b      	subs	r3, r3, r2
     f08:	7ce2      	ldrb	r2, [r4, #19]
     f0a:	b29b      	uxth	r3, r3
     f0c:	8a27      	ldrh	r7, [r4, #16]
     f0e:	4232      	tst	r2, r6
     f10:	d012      	beq.n	f38 <_usb_d_dev_out_next+0x170>
     f12:	1c38      	adds	r0, r7, #0
     f14:	429f      	cmp	r7, r3
     f16:	d900      	bls.n	f1a <_usb_d_dev_out_next+0x152>
     f18:	1c18      	adds	r0, r3, #0
     f1a:	9a01      	ldr	r2, [sp, #4]
     f1c:	b283      	uxth	r3, r0
     f1e:	0150      	lsls	r0, r2, #5
     f20:	4a17      	ldr	r2, [pc, #92]	; (f80 <_usb_d_dev_out_next+0x1b8>)
     f22:	68e4      	ldr	r4, [r4, #12]
     f24:	1810      	adds	r0, r2, r0
     f26:	6304      	str	r4, [r0, #48]	; 0x30
     f28:	4a15      	ldr	r2, [pc, #84]	; (f80 <_usb_d_dev_out_next+0x1b8>)
     f2a:	4819      	ldr	r0, [pc, #100]	; (f90 <_usb_d_dev_out_next+0x1c8>)
     f2c:	1852      	adds	r2, r2, r1
     f2e:	6b51      	ldr	r1, [r2, #52]	; 0x34
     f30:	049b      	lsls	r3, r3, #18
     f32:	091b      	lsrs	r3, r3, #4
     f34:	4001      	ands	r1, r0
     f36:	e79e      	b.n	e76 <_usb_d_dev_out_next+0xae>
     f38:	42bb      	cmp	r3, r7
     f3a:	d90d      	bls.n	f58 <_usb_d_dev_out_next+0x190>
     f3c:	2680      	movs	r6, #128	; 0x80
     f3e:	01b6      	lsls	r6, r6, #6
     f40:	42b3      	cmp	r3, r6
     f42:	d80e      	bhi.n	f62 <_usb_d_dev_out_next+0x19a>
     f44:	9a02      	ldr	r2, [sp, #8]
     f46:	4393      	bics	r3, r2
     f48:	6824      	ldr	r4, [r4, #0]
     f4a:	9a01      	ldr	r2, [sp, #4]
     f4c:	1820      	adds	r0, r4, r0
     f4e:	0154      	lsls	r4, r2, #5
     f50:	4a0b      	ldr	r2, [pc, #44]	; (f80 <_usb_d_dev_out_next+0x1b8>)
     f52:	1914      	adds	r4, r2, r4
     f54:	6320      	str	r0, [r4, #48]	; 0x30
     f56:	e7e7      	b.n	f28 <_usb_d_dev_out_next+0x160>
     f58:	42bb      	cmp	r3, r7
     f5a:	d2f5      	bcs.n	f48 <_usb_d_dev_out_next+0x180>
     f5c:	4316      	orrs	r6, r2
     f5e:	74e6      	strb	r6, [r4, #19]
     f60:	e7f2      	b.n	f48 <_usb_d_dev_out_next+0x180>
     f62:	0033      	movs	r3, r6
     f64:	e7f0      	b.n	f48 <_usb_d_dev_out_next+0x180>
     f66:	4b0b      	ldr	r3, [pc, #44]	; (f94 <_usb_d_dev_out_next+0x1cc>)
     f68:	18c9      	adds	r1, r1, r3
     f6a:	2325      	movs	r3, #37	; 0x25
     f6c:	e7b5      	b.n	eda <_usb_d_dev_out_next+0x112>
     f6e:	2d00      	cmp	r5, #0
     f70:	d1a3      	bne.n	eba <_usb_d_dev_out_next+0xf2>
     f72:	68a2      	ldr	r2, [r4, #8]
     f74:	9b03      	ldr	r3, [sp, #12]
     f76:	4694      	mov	ip, r2
     f78:	4463      	add	r3, ip
     f7a:	60a3      	str	r3, [r4, #8]
     f7c:	e7a7      	b.n	ece <_usb_d_dev_out_next+0x106>
     f7e:	46c0      	nop			; (mov r8, r8)
     f80:	2000049c 	.word	0x2000049c
     f84:	000003ff 	.word	0x000003ff
     f88:	41005100 	.word	0x41005100
     f8c:	000029c5 	.word	0x000029c5
     f90:	f0003fff 	.word	0xf0003fff
     f94:	410050ff 	.word	0x410050ff
     f98:	00000ab1 	.word	0x00000ab1

00000f9c <_usbd_ep_pcksize_size>:
     f9c:	2380      	movs	r3, #128	; 0x80
     f9e:	0002      	movs	r2, r0
     fa0:	009b      	lsls	r3, r3, #2
     fa2:	2007      	movs	r0, #7
     fa4:	429a      	cmp	r2, r3
     fa6:	d814      	bhi.n	fd2 <_usbd_ep_pcksize_size+0x36>
     fa8:	3b01      	subs	r3, #1
     faa:	3bff      	subs	r3, #255	; 0xff
     fac:	3801      	subs	r0, #1
     fae:	429a      	cmp	r2, r3
     fb0:	d80f      	bhi.n	fd2 <_usbd_ep_pcksize_size+0x36>
     fb2:	3801      	subs	r0, #1
     fb4:	2a80      	cmp	r2, #128	; 0x80
     fb6:	d80c      	bhi.n	fd2 <_usbd_ep_pcksize_size+0x36>
     fb8:	3801      	subs	r0, #1
     fba:	2a40      	cmp	r2, #64	; 0x40
     fbc:	d809      	bhi.n	fd2 <_usbd_ep_pcksize_size+0x36>
     fbe:	3801      	subs	r0, #1
     fc0:	2a20      	cmp	r2, #32
     fc2:	d806      	bhi.n	fd2 <_usbd_ep_pcksize_size+0x36>
     fc4:	3801      	subs	r0, #1
     fc6:	2a10      	cmp	r2, #16
     fc8:	d803      	bhi.n	fd2 <_usbd_ep_pcksize_size+0x36>
     fca:	3006      	adds	r0, #6
     fcc:	4290      	cmp	r0, r2
     fce:	4180      	sbcs	r0, r0
     fd0:	4240      	negs	r0, r0
     fd2:	4770      	bx	lr

00000fd4 <_usb_d_dev_init>:
     fd4:	b510      	push	{r4, lr}
     fd6:	4c2a      	ldr	r4, [pc, #168]	; (1080 <_usb_d_dev_init+0xac>)
     fd8:	78a3      	ldrb	r3, [r4, #2]
     fda:	07db      	lsls	r3, r3, #31
     fdc:	d40d      	bmi.n	ffa <_usb_d_dev_init+0x26>
     fde:	2303      	movs	r3, #3
     fe0:	78a2      	ldrb	r2, [r4, #2]
     fe2:	421a      	tst	r2, r3
     fe4:	d1fc      	bne.n	fe0 <_usb_d_dev_init+0xc>
     fe6:	2202      	movs	r2, #2
     fe8:	7823      	ldrb	r3, [r4, #0]
     fea:	4213      	tst	r3, r2
     fec:	d13c      	bne.n	1068 <_usb_d_dev_init+0x94>
     fee:	2301      	movs	r3, #1
     ff0:	7023      	strb	r3, [r4, #0]
     ff2:	3302      	adds	r3, #2
     ff4:	78a2      	ldrb	r2, [r4, #2]
     ff6:	421a      	tst	r2, r3
     ff8:	d1fc      	bne.n	ff4 <_usb_d_dev_init+0x20>
     ffa:	2301      	movs	r3, #1
     ffc:	78a2      	ldrb	r2, [r4, #2]
     ffe:	421a      	tst	r2, r3
    1000:	d1fc      	bne.n	ffc <_usb_d_dev_init+0x28>
    1002:	4b20      	ldr	r3, [pc, #128]	; (1084 <_usb_d_dev_init+0xb0>)
    1004:	4a20      	ldr	r2, [pc, #128]	; (1088 <_usb_d_dev_init+0xb4>)
    1006:	601a      	str	r2, [r3, #0]
    1008:	605a      	str	r2, [r3, #4]
    100a:	609a      	str	r2, [r3, #8]
    100c:	60da      	str	r2, [r3, #12]
    100e:	611a      	str	r2, [r3, #16]
    1010:	4b1e      	ldr	r3, [pc, #120]	; (108c <_usb_d_dev_init+0xb8>)
    1012:	4798      	blx	r3
    1014:	201f      	movs	r0, #31
    1016:	4b1e      	ldr	r3, [pc, #120]	; (1090 <_usb_d_dev_init+0xbc>)
    1018:	681a      	ldr	r2, [r3, #0]
    101a:	0b53      	lsrs	r3, r2, #13
    101c:	0c91      	lsrs	r1, r2, #18
    101e:	0192      	lsls	r2, r2, #6
    1020:	4003      	ands	r3, r0
    1022:	4001      	ands	r1, r0
    1024:	0f52      	lsrs	r2, r2, #29
    1026:	4283      	cmp	r3, r0
    1028:	d100      	bne.n	102c <_usb_d_dev_init+0x58>
    102a:	2305      	movs	r3, #5
    102c:	291f      	cmp	r1, #31
    102e:	d100      	bne.n	1032 <_usb_d_dev_init+0x5e>
    1030:	3902      	subs	r1, #2
    1032:	2a07      	cmp	r2, #7
    1034:	d100      	bne.n	1038 <_usb_d_dev_init+0x64>
    1036:	3a02      	subs	r2, #2
    1038:	019b      	lsls	r3, r3, #6
    103a:	430b      	orrs	r3, r1
    103c:	0312      	lsls	r2, r2, #12
    103e:	4313      	orrs	r3, r2
    1040:	8523      	strh	r3, [r4, #40]	; 0x28
    1042:	2303      	movs	r3, #3
    1044:	78e2      	ldrb	r2, [r4, #3]
    1046:	431a      	orrs	r2, r3
    1048:	70e2      	strb	r2, [r4, #3]
    104a:	220c      	movs	r2, #12
    104c:	78e1      	ldrb	r1, [r4, #3]
    104e:	430a      	orrs	r2, r1
    1050:	70e2      	strb	r2, [r4, #3]
    1052:	2204      	movs	r2, #4
    1054:	7022      	strb	r2, [r4, #0]
    1056:	78a0      	ldrb	r0, [r4, #2]
    1058:	4018      	ands	r0, r3
    105a:	d1fc      	bne.n	1056 <_usb_d_dev_init+0x82>
    105c:	4b0d      	ldr	r3, [pc, #52]	; (1094 <_usb_d_dev_init+0xc0>)
    105e:	3330      	adds	r3, #48	; 0x30
    1060:	6263      	str	r3, [r4, #36]	; 0x24
    1062:	2301      	movs	r3, #1
    1064:	8123      	strh	r3, [r4, #8]
    1066:	bd10      	pop	{r4, pc}
    1068:	7823      	ldrb	r3, [r4, #0]
    106a:	4393      	bics	r3, r2
    106c:	7023      	strb	r3, [r4, #0]
    106e:	2303      	movs	r3, #3
    1070:	78a2      	ldrb	r2, [r4, #2]
    1072:	421a      	tst	r2, r3
    1074:	d1fc      	bne.n	1070 <_usb_d_dev_init+0x9c>
    1076:	2302      	movs	r3, #2
    1078:	78a2      	ldrb	r2, [r4, #2]
    107a:	421a      	tst	r2, r3
    107c:	d1fc      	bne.n	1078 <_usb_d_dev_init+0xa4>
    107e:	e7b6      	b.n	fee <_usb_d_dev_init+0x1a>
    1080:	41005000 	.word	0x41005000
    1084:	2000029c 	.word	0x2000029c
    1088:	000009c5 	.word	0x000009c5
    108c:	00000c19 	.word	0x00000c19
    1090:	00806024 	.word	0x00806024
    1094:	2000049c 	.word	0x2000049c

00001098 <_usb_d_dev_enable>:
    1098:	2203      	movs	r2, #3
    109a:	4b0e      	ldr	r3, [pc, #56]	; (10d4 <_usb_d_dev_enable+0x3c>)
    109c:	7899      	ldrb	r1, [r3, #2]
    109e:	4211      	tst	r1, r2
    10a0:	d115      	bne.n	10ce <_usb_d_dev_enable+0x36>
    10a2:	7899      	ldrb	r1, [r3, #2]
    10a4:	4211      	tst	r1, r2
    10a6:	d1fc      	bne.n	10a2 <_usb_d_dev_enable+0xa>
    10a8:	2202      	movs	r2, #2
    10aa:	7819      	ldrb	r1, [r3, #0]
    10ac:	b2c9      	uxtb	r1, r1
    10ae:	4211      	tst	r1, r2
    10b0:	d006      	beq.n	10c0 <_usb_d_dev_enable+0x28>
    10b2:	2180      	movs	r1, #128	; 0x80
    10b4:	2000      	movs	r0, #0
    10b6:	4a08      	ldr	r2, [pc, #32]	; (10d8 <_usb_d_dev_enable+0x40>)
    10b8:	6011      	str	r1, [r2, #0]
    10ba:	4a08      	ldr	r2, [pc, #32]	; (10dc <_usb_d_dev_enable+0x44>)
    10bc:	831a      	strh	r2, [r3, #24]
    10be:	4770      	bx	lr
    10c0:	430a      	orrs	r2, r1
    10c2:	701a      	strb	r2, [r3, #0]
    10c4:	2203      	movs	r2, #3
    10c6:	7899      	ldrb	r1, [r3, #2]
    10c8:	4211      	tst	r1, r2
    10ca:	d1fc      	bne.n	10c6 <_usb_d_dev_enable+0x2e>
    10cc:	e7f1      	b.n	10b2 <_usb_d_dev_enable+0x1a>
    10ce:	2011      	movs	r0, #17
    10d0:	4240      	negs	r0, r0
    10d2:	e7f4      	b.n	10be <_usb_d_dev_enable+0x26>
    10d4:	41005000 	.word	0x41005000
    10d8:	e000e100 	.word	0xe000e100
    10dc:	0000028d 	.word	0x0000028d

000010e0 <_usb_d_dev_attach>:
    10e0:	2101      	movs	r1, #1
    10e2:	4a02      	ldr	r2, [pc, #8]	; (10ec <_usb_d_dev_attach+0xc>)
    10e4:	8913      	ldrh	r3, [r2, #8]
    10e6:	438b      	bics	r3, r1
    10e8:	8113      	strh	r3, [r2, #8]
    10ea:	4770      	bx	lr
    10ec:	41005000 	.word	0x41005000

000010f0 <_usb_d_dev_set_address>:
    10f0:	2380      	movs	r3, #128	; 0x80
    10f2:	4318      	orrs	r0, r3
    10f4:	4b01      	ldr	r3, [pc, #4]	; (10fc <_usb_d_dev_set_address+0xc>)
    10f6:	7298      	strb	r0, [r3, #10]
    10f8:	4770      	bx	lr
    10fa:	46c0      	nop			; (mov r8, r8)
    10fc:	41005000 	.word	0x41005000

00001100 <_usb_d_dev_ep_init>:
    1100:	b5f7      	push	{r0, r1, r2, r4, r5, r6, r7, lr}
    1102:	2600      	movs	r6, #0
    1104:	466b      	mov	r3, sp
    1106:	240f      	movs	r4, #15
    1108:	9000      	str	r0, [sp, #0]
    110a:	9201      	str	r2, [sp, #4]
    110c:	579e      	ldrsb	r6, [r3, r6]
    110e:	4004      	ands	r4, r0
    1110:	000f      	movs	r7, r1
    1112:	4b2b      	ldr	r3, [pc, #172]	; (11c0 <_usb_d_dev_ep_init+0xc0>)
    1114:	0ff1      	lsrs	r1, r6, #31
    1116:	0020      	movs	r0, r4
    1118:	4798      	blx	r3
    111a:	2303      	movs	r3, #3
    111c:	0005      	movs	r5, r0
    111e:	401f      	ands	r7, r3
    1120:	2c02      	cmp	r4, #2
    1122:	d844      	bhi.n	11ae <_usb_d_dev_ep_init+0xae>
    1124:	7c83      	ldrb	r3, [r0, #18]
    1126:	2bff      	cmp	r3, #255	; 0xff
    1128:	d144      	bne.n	11b4 <_usb_d_dev_ep_init+0xb4>
    112a:	2f00      	cmp	r7, #0
    112c:	d10f      	bne.n	114e <_usb_d_dev_ep_init+0x4e>
    112e:	43f1      	mvns	r1, r6
    1130:	4b23      	ldr	r3, [pc, #140]	; (11c0 <_usb_d_dev_ep_init+0xc0>)
    1132:	0fc9      	lsrs	r1, r1, #31
    1134:	0020      	movs	r0, r4
    1136:	4798      	blx	r3
    1138:	7c83      	ldrb	r3, [r0, #18]
    113a:	2bff      	cmp	r3, #255	; 0xff
    113c:	d13a      	bne.n	11b4 <_usb_d_dev_ep_init+0xb4>
    113e:	3bf3      	subs	r3, #243	; 0xf3
    1140:	4363      	muls	r3, r4
    1142:	4a20      	ldr	r2, [pc, #128]	; (11c4 <_usb_d_dev_ep_init+0xc4>)
    1144:	589b      	ldr	r3, [r3, r2]
    1146:	2b00      	cmp	r3, #0
    1148:	d136      	bne.n	11b8 <_usb_d_dev_ep_init+0xb8>
    114a:	2013      	movs	r0, #19
    114c:	e030      	b.n	11b0 <_usb_d_dev_ep_init+0xb0>
    114e:	2e00      	cmp	r6, #0
    1150:	da16      	bge.n	1180 <_usb_d_dev_ep_init+0x80>
    1152:	220c      	movs	r2, #12
    1154:	4362      	muls	r2, r4
    1156:	4b1b      	ldr	r3, [pc, #108]	; (11c4 <_usb_d_dev_ep_init+0xc4>)
    1158:	189b      	adds	r3, r3, r2
    115a:	685a      	ldr	r2, [r3, #4]
    115c:	2a00      	cmp	r2, #0
    115e:	d11b      	bne.n	1198 <_usb_d_dev_ep_init+0x98>
    1160:	230c      	movs	r3, #12
    1162:	4363      	muls	r3, r4
    1164:	4c17      	ldr	r4, [pc, #92]	; (11c4 <_usb_d_dev_ep_init+0xc4>)
    1166:	18e4      	adds	r4, r4, r3
    1168:	6863      	ldr	r3, [r4, #4]
    116a:	60eb      	str	r3, [r5, #12]
    116c:	466b      	mov	r3, sp
    116e:	889b      	ldrh	r3, [r3, #4]
    1170:	2000      	movs	r0, #0
    1172:	822b      	strh	r3, [r5, #16]
    1174:	466b      	mov	r3, sp
    1176:	781b      	ldrb	r3, [r3, #0]
    1178:	3701      	adds	r7, #1
    117a:	74ef      	strb	r7, [r5, #19]
    117c:	74ab      	strb	r3, [r5, #18]
    117e:	bdfe      	pop	{r1, r2, r3, r4, r5, r6, r7, pc}
    1180:	230c      	movs	r3, #12
    1182:	4363      	muls	r3, r4
    1184:	4a0f      	ldr	r2, [pc, #60]	; (11c4 <_usb_d_dev_ep_init+0xc4>)
    1186:	589b      	ldr	r3, [r3, r2]
    1188:	2b00      	cmp	r3, #0
    118a:	d00b      	beq.n	11a4 <_usb_d_dev_ep_init+0xa4>
    118c:	220c      	movs	r2, #12
    118e:	4362      	muls	r2, r4
    1190:	4b0c      	ldr	r3, [pc, #48]	; (11c4 <_usb_d_dev_ep_init+0xc4>)
    1192:	189b      	adds	r3, r3, r2
    1194:	891b      	ldrh	r3, [r3, #8]
    1196:	e000      	b.n	119a <_usb_d_dev_ep_init+0x9a>
    1198:	895b      	ldrh	r3, [r3, #10]
    119a:	9a01      	ldr	r2, [sp, #4]
    119c:	4293      	cmp	r3, r2
    119e:	dbd4      	blt.n	114a <_usb_d_dev_ep_init+0x4a>
    11a0:	2e00      	cmp	r6, #0
    11a2:	dbdd      	blt.n	1160 <_usb_d_dev_ep_init+0x60>
    11a4:	230c      	movs	r3, #12
    11a6:	435c      	muls	r4, r3
    11a8:	4b06      	ldr	r3, [pc, #24]	; (11c4 <_usb_d_dev_ep_init+0xc4>)
    11aa:	58e3      	ldr	r3, [r4, r3]
    11ac:	e7dd      	b.n	116a <_usb_d_dev_ep_init+0x6a>
    11ae:	2012      	movs	r0, #18
    11b0:	4240      	negs	r0, r0
    11b2:	e7e4      	b.n	117e <_usb_d_dev_ep_init+0x7e>
    11b4:	2014      	movs	r0, #20
    11b6:	e7fb      	b.n	11b0 <_usb_d_dev_ep_init+0xb0>
    11b8:	2e00      	cmp	r6, #0
    11ba:	dae7      	bge.n	118c <_usb_d_dev_ep_init+0x8c>
    11bc:	e7c9      	b.n	1152 <_usb_d_dev_ep_init+0x52>
    11be:	46c0      	nop			; (mov r8, r8)
    11c0:	000009ed 	.word	0x000009ed
    11c4:	00003884 	.word	0x00003884

000011c8 <_usb_d_dev_ep_deinit>:
    11c8:	b5f7      	push	{r0, r1, r2, r4, r5, r6, r7, lr}
    11ca:	250f      	movs	r5, #15
    11cc:	b243      	sxtb	r3, r0
    11ce:	0fdf      	lsrs	r7, r3, #31
    11d0:	4005      	ands	r5, r0
    11d2:	9301      	str	r3, [sp, #4]
    11d4:	0004      	movs	r4, r0
    11d6:	0039      	movs	r1, r7
    11d8:	0028      	movs	r0, r5
    11da:	4b16      	ldr	r3, [pc, #88]	; (1234 <_usb_d_dev_ep_deinit+0x6c>)
    11dc:	4798      	blx	r3
    11de:	0006      	movs	r6, r0
    11e0:	2d02      	cmp	r5, #2
    11e2:	d814      	bhi.n	120e <_usb_d_dev_ep_deinit+0x46>
    11e4:	7c83      	ldrb	r3, [r0, #18]
    11e6:	2bff      	cmp	r3, #255	; 0xff
    11e8:	d011      	beq.n	120e <_usb_d_dev_ep_deinit+0x46>
    11ea:	2203      	movs	r2, #3
    11ec:	4b12      	ldr	r3, [pc, #72]	; (1238 <_usb_d_dev_ep_deinit+0x70>)
    11ee:	0039      	movs	r1, r7
    11f0:	4798      	blx	r3
    11f2:	2207      	movs	r2, #7
    11f4:	7cf3      	ldrb	r3, [r6, #19]
    11f6:	4013      	ands	r3, r2
    11f8:	2b01      	cmp	r3, #1
    11fa:	d109      	bne.n	1210 <_usb_d_dev_ep_deinit+0x48>
    11fc:	2200      	movs	r2, #0
    11fe:	3408      	adds	r4, #8
    1200:	4b0e      	ldr	r3, [pc, #56]	; (123c <_usb_d_dev_ep_deinit+0x74>)
    1202:	0164      	lsls	r4, r4, #5
    1204:	54e2      	strb	r2, [r4, r3]
    1206:	2300      	movs	r3, #0
    1208:	74f3      	strb	r3, [r6, #19]
    120a:	33ff      	adds	r3, #255	; 0xff
    120c:	74b3      	strb	r3, [r6, #18]
    120e:	bdf7      	pop	{r0, r1, r2, r4, r5, r6, r7, pc}
    1210:	b263      	sxtb	r3, r4
    1212:	2b00      	cmp	r3, #0
    1214:	da07      	bge.n	1226 <_usb_d_dev_ep_deinit+0x5e>
    1216:	2270      	movs	r2, #112	; 0x70
    1218:	4b09      	ldr	r3, [pc, #36]	; (1240 <_usb_d_dev_ep_deinit+0x78>)
    121a:	016d      	lsls	r5, r5, #5
    121c:	18ed      	adds	r5, r5, r3
    121e:	786b      	ldrb	r3, [r5, #1]
    1220:	4393      	bics	r3, r2
    1222:	706b      	strb	r3, [r5, #1]
    1224:	e7ef      	b.n	1206 <_usb_d_dev_ep_deinit+0x3e>
    1226:	4b06      	ldr	r3, [pc, #24]	; (1240 <_usb_d_dev_ep_deinit+0x78>)
    1228:	0164      	lsls	r4, r4, #5
    122a:	18e4      	adds	r4, r4, r3
    122c:	7863      	ldrb	r3, [r4, #1]
    122e:	4393      	bics	r3, r2
    1230:	7063      	strb	r3, [r4, #1]
    1232:	e7e8      	b.n	1206 <_usb_d_dev_ep_deinit+0x3e>
    1234:	000009ed 	.word	0x000009ed
    1238:	00000ad5 	.word	0x00000ad5
    123c:	41005000 	.word	0x41005000
    1240:	410050ff 	.word	0x410050ff

00001244 <_usb_d_dev_ep_enable>:
    1244:	b5f7      	push	{r0, r1, r2, r4, r5, r6, r7, lr}
    1246:	250f      	movs	r5, #15
    1248:	b244      	sxtb	r4, r0
    124a:	4005      	ands	r5, r0
    124c:	0fe1      	lsrs	r1, r4, #31
    124e:	4b46      	ldr	r3, [pc, #280]	; (1368 <_usb_d_dev_ep_enable+0x124>)
    1250:	0028      	movs	r0, r5
    1252:	4798      	blx	r3
    1254:	4b45      	ldr	r3, [pc, #276]	; (136c <_usb_d_dev_ep_enable+0x128>)
    1256:	0169      	lsls	r1, r5, #5
    1258:	18ce      	adds	r6, r1, r3
    125a:	7872      	ldrb	r2, [r6, #1]
    125c:	0007      	movs	r7, r0
    125e:	b2d2      	uxtb	r2, r2
    1260:	2d02      	cmp	r5, #2
    1262:	d900      	bls.n	1266 <_usb_d_dev_ep_enable+0x22>
    1264:	e07b      	b.n	135e <_usb_d_dev_ep_enable+0x11a>
    1266:	7c83      	ldrb	r3, [r0, #18]
    1268:	9301      	str	r3, [sp, #4]
    126a:	2bff      	cmp	r3, #255	; 0xff
    126c:	d100      	bne.n	1270 <_usb_d_dev_ep_enable+0x2c>
    126e:	e076      	b.n	135e <_usb_d_dev_ep_enable+0x11a>
    1270:	4d3f      	ldr	r5, [pc, #252]	; (1370 <_usb_d_dev_ep_enable+0x12c>)
    1272:	7cc3      	ldrb	r3, [r0, #19]
    1274:	3530      	adds	r5, #48	; 0x30
    1276:	186d      	adds	r5, r5, r1
    1278:	2007      	movs	r0, #7
    127a:	0019      	movs	r1, r3
    127c:	4001      	ands	r1, r0
    127e:	2901      	cmp	r1, #1
    1280:	d13b      	bne.n	12fa <_usb_d_dev_ep_enable+0xb6>
    1282:	2477      	movs	r4, #119	; 0x77
    1284:	4014      	ands	r4, r2
    1286:	d000      	beq.n	128a <_usb_d_dev_ep_enable+0x46>
    1288:	e06c      	b.n	1364 <_usb_d_dev_ep_enable+0x120>
    128a:	2311      	movs	r3, #17
    128c:	7073      	strb	r3, [r6, #1]
    128e:	8a3b      	ldrh	r3, [r7, #16]
    1290:	9300      	str	r3, [sp, #0]
    1292:	0018      	movs	r0, r3
    1294:	4b37      	ldr	r3, [pc, #220]	; (1374 <_usb_d_dev_ep_enable+0x130>)
    1296:	4798      	blx	r3
    1298:	23e0      	movs	r3, #224	; 0xe0
    129a:	0700      	lsls	r0, r0, #28
    129c:	05db      	lsls	r3, r3, #23
    129e:	4018      	ands	r0, r3
    12a0:	9b00      	ldr	r3, [sp, #0]
    12a2:	4a35      	ldr	r2, [pc, #212]	; (1378 <_usb_d_dev_ep_enable+0x134>)
    12a4:	039b      	lsls	r3, r3, #14
    12a6:	4013      	ands	r3, r2
    12a8:	4303      	orrs	r3, r0
    12aa:	606b      	str	r3, [r5, #4]
    12ac:	9b00      	ldr	r3, [sp, #0]
    12ae:	2140      	movs	r1, #64	; 0x40
    12b0:	049b      	lsls	r3, r3, #18
    12b2:	0c9b      	lsrs	r3, r3, #18
    12b4:	2280      	movs	r2, #128	; 0x80
    12b6:	4318      	orrs	r0, r3
    12b8:	6168      	str	r0, [r5, #20]
    12ba:	200f      	movs	r0, #15
    12bc:	71b1      	strb	r1, [r6, #6]
    12be:	7172      	strb	r2, [r6, #5]
    12c0:	9a01      	ldr	r2, [sp, #4]
    12c2:	72ac      	strb	r4, [r5, #10]
    12c4:	4002      	ands	r2, r0
    12c6:	482a      	ldr	r0, [pc, #168]	; (1370 <_usb_d_dev_ep_enable+0x12c>)
    12c8:	0152      	lsls	r2, r2, #5
    12ca:	76ac      	strb	r4, [r5, #26]
    12cc:	1885      	adds	r5, r0, r2
    12ce:	0028      	movs	r0, r5
    12d0:	68fe      	ldr	r6, [r7, #12]
    12d2:	632e      	str	r6, [r5, #48]	; 0x30
    12d4:	6b6d      	ldr	r5, [r5, #52]	; 0x34
    12d6:	039e      	lsls	r6, r3, #14
    12d8:	4b28      	ldr	r3, [pc, #160]	; (137c <_usb_d_dev_ep_enable+0x138>)
    12da:	402b      	ands	r3, r5
    12dc:	4333      	orrs	r3, r6
    12de:	6343      	str	r3, [r0, #52]	; 0x34
    12e0:	6b43      	ldr	r3, [r0, #52]	; 0x34
    12e2:	0b9b      	lsrs	r3, r3, #14
    12e4:	039b      	lsls	r3, r3, #14
    12e6:	6343      	str	r3, [r0, #52]	; 0x34
    12e8:	4b20      	ldr	r3, [pc, #128]	; (136c <_usb_d_dev_ep_enable+0x128>)
    12ea:	18d3      	adds	r3, r2, r3
    12ec:	22b0      	movs	r2, #176	; 0xb0
    12ee:	715a      	strb	r2, [r3, #5]
    12f0:	3aa0      	subs	r2, #160	; 0xa0
    12f2:	7199      	strb	r1, [r3, #6]
    12f4:	729a      	strb	r2, [r3, #10]
    12f6:	0020      	movs	r0, r4
    12f8:	bdfe      	pop	{r1, r2, r3, r4, r5, r6, r7, pc}
    12fa:	2c00      	cmp	r4, #0
    12fc:	da17      	bge.n	132e <_usb_d_dev_ep_enable+0xea>
    12fe:	2070      	movs	r0, #112	; 0x70
    1300:	0014      	movs	r4, r2
    1302:	4004      	ands	r4, r0
    1304:	d12e      	bne.n	1364 <_usb_d_dev_ep_enable+0x120>
    1306:	011b      	lsls	r3, r3, #4
    1308:	4003      	ands	r3, r0
    130a:	4313      	orrs	r3, r2
    130c:	7073      	strb	r3, [r6, #1]
    130e:	8a3f      	ldrh	r7, [r7, #16]
    1310:	4b18      	ldr	r3, [pc, #96]	; (1374 <_usb_d_dev_ep_enable+0x130>)
    1312:	0038      	movs	r0, r7
    1314:	4798      	blx	r3
    1316:	23e0      	movs	r3, #224	; 0xe0
    1318:	0700      	lsls	r0, r0, #28
    131a:	05db      	lsls	r3, r3, #23
    131c:	4018      	ands	r0, r3
    131e:	2380      	movs	r3, #128	; 0x80
    1320:	04bf      	lsls	r7, r7, #18
    1322:	0cbf      	lsrs	r7, r7, #18
    1324:	4338      	orrs	r0, r7
    1326:	6168      	str	r0, [r5, #20]
    1328:	7173      	strb	r3, [r6, #5]
    132a:	76ac      	strb	r4, [r5, #26]
    132c:	e7e3      	b.n	12f6 <_usb_d_dev_ep_enable+0xb2>
    132e:	4010      	ands	r0, r2
    1330:	1e04      	subs	r4, r0, #0
    1332:	d117      	bne.n	1364 <_usb_d_dev_ep_enable+0x120>
    1334:	075b      	lsls	r3, r3, #29
    1336:	0f5b      	lsrs	r3, r3, #29
    1338:	4313      	orrs	r3, r2
    133a:	7073      	strb	r3, [r6, #1]
    133c:	8a3f      	ldrh	r7, [r7, #16]
    133e:	4b0d      	ldr	r3, [pc, #52]	; (1374 <_usb_d_dev_ep_enable+0x130>)
    1340:	0038      	movs	r0, r7
    1342:	4798      	blx	r3
    1344:	4a0c      	ldr	r2, [pc, #48]	; (1378 <_usb_d_dev_ep_enable+0x134>)
    1346:	03bb      	lsls	r3, r7, #14
    1348:	4013      	ands	r3, r2
    134a:	22e0      	movs	r2, #224	; 0xe0
    134c:	0700      	lsls	r0, r0, #28
    134e:	05d2      	lsls	r2, r2, #23
    1350:	4010      	ands	r0, r2
    1352:	4318      	orrs	r0, r3
    1354:	2340      	movs	r3, #64	; 0x40
    1356:	6068      	str	r0, [r5, #4]
    1358:	71b3      	strb	r3, [r6, #6]
    135a:	72ac      	strb	r4, [r5, #10]
    135c:	e7cb      	b.n	12f6 <_usb_d_dev_ep_enable+0xb2>
    135e:	2012      	movs	r0, #18
    1360:	4240      	negs	r0, r0
    1362:	e7c9      	b.n	12f8 <_usb_d_dev_ep_enable+0xb4>
    1364:	2014      	movs	r0, #20
    1366:	e7fb      	b.n	1360 <_usb_d_dev_ep_enable+0x11c>
    1368:	000009ed 	.word	0x000009ed
    136c:	410050ff 	.word	0x410050ff
    1370:	2000049c 	.word	0x2000049c
    1374:	00000f9d 	.word	0x00000f9d
    1378:	0fffc000 	.word	0x0fffc000
    137c:	f0003fff 	.word	0xf0003fff

00001380 <_usb_d_dev_ep_stall>:
    1380:	b5f8      	push	{r3, r4, r5, r6, r7, lr}
    1382:	0007      	movs	r7, r0
    1384:	250f      	movs	r5, #15
    1386:	09c4      	lsrs	r4, r0, #7
    1388:	402f      	ands	r7, r5
    138a:	000e      	movs	r6, r1
    138c:	0038      	movs	r0, r7
    138e:	0021      	movs	r1, r4
    1390:	4b2b      	ldr	r3, [pc, #172]	; (1440 <_usb_d_dev_ep_stall+0xc0>)
    1392:	4798      	blx	r3
    1394:	2f02      	cmp	r7, #2
    1396:	d84f      	bhi.n	1438 <_usb_d_dev_ep_stall+0xb8>
    1398:	2e01      	cmp	r6, #1
    139a:	d115      	bne.n	13c8 <_usb_d_dev_ep_stall+0x48>
    139c:	2210      	movs	r2, #16
    139e:	40a2      	lsls	r2, r4
    13a0:	7c83      	ldrb	r3, [r0, #18]
    13a2:	4928      	ldr	r1, [pc, #160]	; (1444 <_usb_d_dev_ep_stall+0xc4>)
    13a4:	401d      	ands	r5, r3
    13a6:	016b      	lsls	r3, r5, #5
    13a8:	b2d2      	uxtb	r2, r2
    13aa:	185b      	adds	r3, r3, r1
    13ac:	715a      	strb	r2, [r3, #5]
    13ae:	2320      	movs	r3, #32
    13b0:	40a3      	lsls	r3, r4
    13b2:	4a25      	ldr	r2, [pc, #148]	; (1448 <_usb_d_dev_ep_stall+0xc8>)
    13b4:	016d      	lsls	r5, r5, #5
    13b6:	b2db      	uxtb	r3, r3
    13b8:	18ad      	adds	r5, r5, r2
    13ba:	72ab      	strb	r3, [r5, #10]
    13bc:	2308      	movs	r3, #8
    13be:	7cc2      	ldrb	r2, [r0, #19]
    13c0:	4313      	orrs	r3, r2
    13c2:	74c3      	strb	r3, [r0, #19]
    13c4:	2000      	movs	r0, #0
    13c6:	bdf8      	pop	{r3, r4, r5, r6, r7, pc}
    13c8:	7c83      	ldrb	r3, [r0, #18]
    13ca:	2e00      	cmp	r6, #0
    13cc:	d129      	bne.n	1422 <_usb_d_dev_ep_stall+0xa2>
    13ce:	402b      	ands	r3, r5
    13d0:	4a1e      	ldr	r2, [pc, #120]	; (144c <_usb_d_dev_ep_stall+0xcc>)
    13d2:	015b      	lsls	r3, r3, #5
    13d4:	1899      	adds	r1, r3, r2
    13d6:	4a1c      	ldr	r2, [pc, #112]	; (1448 <_usb_d_dev_ep_stall+0xc8>)
    13d8:	189b      	adds	r3, r3, r2
    13da:	2210      	movs	r2, #16
    13dc:	40a2      	lsls	r2, r4
    13de:	79dd      	ldrb	r5, [r3, #7]
    13e0:	422a      	tst	r2, r5
    13e2:	d0ef      	beq.n	13c4 <_usb_d_dev_ep_stall+0x44>
    13e4:	b2d2      	uxtb	r2, r2
    13e6:	715a      	strb	r2, [r3, #5]
    13e8:	2220      	movs	r2, #32
    13ea:	40a2      	lsls	r2, r4
    13ec:	b2d5      	uxtb	r5, r2
    13ee:	725d      	strb	r5, [r3, #9]
    13f0:	7a1e      	ldrb	r6, [r3, #8]
    13f2:	4232      	tst	r2, r6
    13f4:	d004      	beq.n	1400 <_usb_d_dev_ep_stall+0x80>
    13f6:	2201      	movs	r2, #1
    13f8:	40a2      	lsls	r2, r4
    13fa:	b2d2      	uxtb	r2, r2
    13fc:	721d      	strb	r5, [r3, #8]
    13fe:	715a      	strb	r2, [r3, #5]
    1400:	2307      	movs	r3, #7
    1402:	7cc2      	ldrb	r2, [r0, #19]
    1404:	4013      	ands	r3, r2
    1406:	2b01      	cmp	r3, #1
    1408:	d108      	bne.n	141c <_usb_d_dev_ep_stall+0x9c>
    140a:	31ff      	adds	r1, #255	; 0xff
    140c:	79cb      	ldrb	r3, [r1, #7]
    140e:	2130      	movs	r1, #48	; 0x30
    1410:	400b      	ands	r3, r1
    1412:	d1d7      	bne.n	13c4 <_usb_d_dev_ep_stall+0x44>
    1414:	3928      	subs	r1, #40	; 0x28
    1416:	438a      	bics	r2, r1
    1418:	74c2      	strb	r2, [r0, #19]
    141a:	e7d3      	b.n	13c4 <_usb_d_dev_ep_stall+0x44>
    141c:	2308      	movs	r3, #8
    141e:	439a      	bics	r2, r3
    1420:	e7fa      	b.n	1418 <_usb_d_dev_ep_stall+0x98>
    1422:	401d      	ands	r5, r3
    1424:	4b07      	ldr	r3, [pc, #28]	; (1444 <_usb_d_dev_ep_stall+0xc4>)
    1426:	016d      	lsls	r5, r5, #5
    1428:	18ed      	adds	r5, r5, r3
    142a:	2310      	movs	r3, #16
    142c:	40a3      	lsls	r3, r4
    142e:	79a8      	ldrb	r0, [r5, #6]
    1430:	4018      	ands	r0, r3
    1432:	1e43      	subs	r3, r0, #1
    1434:	4198      	sbcs	r0, r3
    1436:	e7c6      	b.n	13c6 <_usb_d_dev_ep_stall+0x46>
    1438:	2012      	movs	r0, #18
    143a:	4240      	negs	r0, r0
    143c:	e7c3      	b.n	13c6 <_usb_d_dev_ep_stall+0x46>
    143e:	46c0      	nop			; (mov r8, r8)
    1440:	000009ed 	.word	0x000009ed
    1444:	41005100 	.word	0x41005100
    1448:	410050ff 	.word	0x410050ff
    144c:	41005000 	.word	0x41005000

00001450 <_usb_d_dev_ep_read_req>:
    1450:	b5f8      	push	{r3, r4, r5, r6, r7, lr}
    1452:	230f      	movs	r3, #15
    1454:	4018      	ands	r0, r3
    1456:	4b11      	ldr	r3, [pc, #68]	; (149c <_usb_d_dev_ep_read_req+0x4c>)
    1458:	0144      	lsls	r4, r0, #5
    145a:	3330      	adds	r3, #48	; 0x30
    145c:	191b      	adds	r3, r3, r4
    145e:	000f      	movs	r7, r1
    1460:	6819      	ldr	r1, [r3, #0]
    1462:	685d      	ldr	r5, [r3, #4]
    1464:	04ad      	lsls	r5, r5, #18
    1466:	0cad      	lsrs	r5, r5, #18
    1468:	2802      	cmp	r0, #2
    146a:	d812      	bhi.n	1492 <_usb_d_dev_ep_read_req+0x42>
    146c:	2f00      	cmp	r7, #0
    146e:	d010      	beq.n	1492 <_usb_d_dev_ep_read_req+0x42>
    1470:	4b0b      	ldr	r3, [pc, #44]	; (14a0 <_usb_d_dev_ep_read_req+0x50>)
    1472:	18e4      	adds	r4, r4, r3
    1474:	7863      	ldrb	r3, [r4, #1]
    1476:	2b11      	cmp	r3, #17
    1478:	d10e      	bne.n	1498 <_usb_d_dev_ep_read_req+0x48>
    147a:	2610      	movs	r6, #16
    147c:	7a23      	ldrb	r3, [r4, #8]
    147e:	2000      	movs	r0, #0
    1480:	4233      	tst	r3, r6
    1482:	d005      	beq.n	1490 <_usb_d_dev_ep_read_req+0x40>
    1484:	2208      	movs	r2, #8
    1486:	0038      	movs	r0, r7
    1488:	4b06      	ldr	r3, [pc, #24]	; (14a4 <_usb_d_dev_ep_read_req+0x54>)
    148a:	4798      	blx	r3
    148c:	0028      	movs	r0, r5
    148e:	7226      	strb	r6, [r4, #8]
    1490:	bdf8      	pop	{r3, r4, r5, r6, r7, pc}
    1492:	2012      	movs	r0, #18
    1494:	4240      	negs	r0, r0
    1496:	e7fb      	b.n	1490 <_usb_d_dev_ep_read_req+0x40>
    1498:	2013      	movs	r0, #19
    149a:	e7fb      	b.n	1494 <_usb_d_dev_ep_read_req+0x44>
    149c:	2000049c 	.word	0x2000049c
    14a0:	410050ff 	.word	0x410050ff
    14a4:	000029c5 	.word	0x000029c5

000014a8 <_usb_d_dev_ep_trans>:
    14a8:	b5f0      	push	{r4, r5, r6, r7, lr}
    14aa:	250f      	movs	r5, #15
    14ac:	7a03      	ldrb	r3, [r0, #8]
    14ae:	b087      	sub	sp, #28
    14b0:	401d      	ands	r5, r3
    14b2:	b25b      	sxtb	r3, r3
    14b4:	9301      	str	r3, [sp, #4]
    14b6:	0fdb      	lsrs	r3, r3, #31
    14b8:	9303      	str	r3, [sp, #12]
    14ba:	0019      	movs	r1, r3
    14bc:	0007      	movs	r7, r0
    14be:	4b38      	ldr	r3, [pc, #224]	; (15a0 <_usb_d_dev_ep_trans+0xf8>)
    14c0:	0028      	movs	r0, r5
    14c2:	4798      	blx	r3
    14c4:	4a37      	ldr	r2, [pc, #220]	; (15a4 <_usb_d_dev_ep_trans+0xfc>)
    14c6:	8a03      	ldrh	r3, [r0, #16]
    14c8:	0004      	movs	r4, r0
    14ca:	001e      	movs	r6, r3
    14cc:	4293      	cmp	r3, r2
    14ce:	d001      	beq.n	14d4 <_usb_d_dev_ep_trans+0x2c>
    14d0:	1e5e      	subs	r6, r3, #1
    14d2:	b2b6      	uxth	r6, r6
    14d4:	687a      	ldr	r2, [r7, #4]
    14d6:	4016      	ands	r6, r2
    14d8:	9602      	str	r6, [sp, #8]
    14da:	2d02      	cmp	r5, #2
    14dc:	d85d      	bhi.n	159a <_usb_d_dev_ep_trans+0xf2>
    14de:	683d      	ldr	r5, [r7, #0]
    14e0:	4931      	ldr	r1, [pc, #196]	; (15a8 <_usb_d_dev_ep_trans+0x100>)
    14e2:	428d      	cmp	r5, r1
    14e4:	d90b      	bls.n	14fe <_usb_d_dev_ep_trans+0x56>
    14e6:	4831      	ldr	r0, [pc, #196]	; (15ac <_usb_d_dev_ep_trans+0x104>)
    14e8:	1951      	adds	r1, r2, r5
    14ea:	4281      	cmp	r1, r0
    14ec:	d807      	bhi.n	14fe <_usb_d_dev_ep_trans+0x56>
    14ee:	2103      	movs	r1, #3
    14f0:	400d      	ands	r5, r1
    14f2:	d104      	bne.n	14fe <_usb_d_dev_ep_trans+0x56>
    14f4:	9901      	ldr	r1, [sp, #4]
    14f6:	2900      	cmp	r1, #0
    14f8:	db0e      	blt.n	1518 <_usb_d_dev_ep_trans+0x70>
    14fa:	429a      	cmp	r2, r3
    14fc:	d206      	bcs.n	150c <_usb_d_dev_ep_trans+0x64>
    14fe:	68e3      	ldr	r3, [r4, #12]
    1500:	2501      	movs	r5, #1
    1502:	2b00      	cmp	r3, #0
    1504:	d108      	bne.n	1518 <_usb_d_dev_ep_trans+0x70>
    1506:	2013      	movs	r0, #19
    1508:	4240      	negs	r0, r0
    150a:	e015      	b.n	1538 <_usb_d_dev_ep_trans+0x90>
    150c:	9b02      	ldr	r3, [sp, #8]
    150e:	2b00      	cmp	r3, #0
    1510:	d014      	beq.n	153c <_usb_d_dev_ep_trans+0x94>
    1512:	68e3      	ldr	r3, [r4, #12]
    1514:	2b00      	cmp	r3, #0
    1516:	d040      	beq.n	159a <_usb_d_dev_ep_trans+0xf2>
    1518:	7ce3      	ldrb	r3, [r4, #19]
    151a:	2002      	movs	r0, #2
    151c:	071b      	lsls	r3, r3, #28
    151e:	d40b      	bmi.n	1538 <_usb_d_dev_ep_trans+0x90>
    1520:	4b23      	ldr	r3, [pc, #140]	; (15b0 <_usb_d_dev_ep_trans+0x108>)
    1522:	a805      	add	r0, sp, #20
    1524:	4798      	blx	r3
    1526:	7ce1      	ldrb	r1, [r4, #19]
    1528:	2340      	movs	r3, #64	; 0x40
    152a:	000e      	movs	r6, r1
    152c:	4a21      	ldr	r2, [pc, #132]	; (15b4 <_usb_d_dev_ep_trans+0x10c>)
    152e:	401e      	ands	r6, r3
    1530:	d006      	beq.n	1540 <_usb_d_dev_ep_trans+0x98>
    1532:	a805      	add	r0, sp, #20
    1534:	4790      	blx	r2
    1536:	2001      	movs	r0, #1
    1538:	b007      	add	sp, #28
    153a:	bdf0      	pop	{r4, r5, r6, r7, pc}
    153c:	9d02      	ldr	r5, [sp, #8]
    153e:	e7eb      	b.n	1518 <_usb_d_dev_ep_trans+0x70>
    1540:	430b      	orrs	r3, r1
    1542:	74e3      	strb	r3, [r4, #19]
    1544:	a805      	add	r0, sp, #20
    1546:	4790      	blx	r2
    1548:	217f      	movs	r1, #127	; 0x7f
    154a:	683b      	ldr	r3, [r7, #0]
    154c:	6023      	str	r3, [r4, #0]
    154e:	687b      	ldr	r3, [r7, #4]
    1550:	60a6      	str	r6, [r4, #8]
    1552:	6063      	str	r3, [r4, #4]
    1554:	9b03      	ldr	r3, [sp, #12]
    1556:	01da      	lsls	r2, r3, #7
    1558:	7ce3      	ldrb	r3, [r4, #19]
    155a:	400b      	ands	r3, r1
    155c:	4313      	orrs	r3, r2
    155e:	0169      	lsls	r1, r5, #5
    1560:	001d      	movs	r5, r3
    1562:	2320      	movs	r3, #32
    1564:	439d      	bics	r5, r3
    1566:	430d      	orrs	r5, r1
    1568:	74e5      	strb	r5, [r4, #19]
    156a:	7a7b      	ldrb	r3, [r7, #9]
    156c:	2b00      	cmp	r3, #0
    156e:	d003      	beq.n	1578 <_usb_d_dev_ep_trans+0xd0>
    1570:	9e02      	ldr	r6, [sp, #8]
    1572:	4273      	negs	r3, r6
    1574:	415e      	adcs	r6, r3
    1576:	b2f6      	uxtb	r6, r6
    1578:	2210      	movs	r2, #16
    157a:	7ce3      	ldrb	r3, [r4, #19]
    157c:	0136      	lsls	r6, r6, #4
    157e:	4393      	bics	r3, r2
    1580:	431e      	orrs	r6, r3
    1582:	9b01      	ldr	r3, [sp, #4]
    1584:	74e6      	strb	r6, [r4, #19]
    1586:	2100      	movs	r1, #0
    1588:	0020      	movs	r0, r4
    158a:	2b00      	cmp	r3, #0
    158c:	da03      	bge.n	1596 <_usb_d_dev_ep_trans+0xee>
    158e:	4b0a      	ldr	r3, [pc, #40]	; (15b8 <_usb_d_dev_ep_trans+0x110>)
    1590:	4798      	blx	r3
    1592:	2000      	movs	r0, #0
    1594:	e7d0      	b.n	1538 <_usb_d_dev_ep_trans+0x90>
    1596:	4b09      	ldr	r3, [pc, #36]	; (15bc <_usb_d_dev_ep_trans+0x114>)
    1598:	e7fa      	b.n	1590 <_usb_d_dev_ep_trans+0xe8>
    159a:	2012      	movs	r0, #18
    159c:	e7b4      	b.n	1508 <_usb_d_dev_ep_trans+0x60>
    159e:	46c0      	nop			; (mov r8, r8)
    15a0:	000009ed 	.word	0x000009ed
    15a4:	000003ff 	.word	0x000003ff
    15a8:	1fffffff 	.word	0x1fffffff
    15ac:	20000fff 	.word	0x20000fff
    15b0:	000002d5 	.word	0x000002d5
    15b4:	000002e3 	.word	0x000002e3
    15b8:	00000c59 	.word	0x00000c59
    15bc:	00000dc9 	.word	0x00000dc9

000015c0 <_usb_d_dev_register_callback>:
    15c0:	2900      	cmp	r1, #0
    15c2:	d100      	bne.n	15c6 <_usb_d_dev_register_callback+0x6>
    15c4:	4905      	ldr	r1, [pc, #20]	; (15dc <_usb_d_dev_register_callback+0x1c>)
    15c6:	2801      	cmp	r0, #1
    15c8:	d102      	bne.n	15d0 <_usb_d_dev_register_callback+0x10>
    15ca:	4b05      	ldr	r3, [pc, #20]	; (15e0 <_usb_d_dev_register_callback+0x20>)
    15cc:	6059      	str	r1, [r3, #4]
    15ce:	4770      	bx	lr
    15d0:	2800      	cmp	r0, #0
    15d2:	d1fc      	bne.n	15ce <_usb_d_dev_register_callback+0xe>
    15d4:	4b02      	ldr	r3, [pc, #8]	; (15e0 <_usb_d_dev_register_callback+0x20>)
    15d6:	6019      	str	r1, [r3, #0]
    15d8:	e7f9      	b.n	15ce <_usb_d_dev_register_callback+0xe>
    15da:	46c0      	nop			; (mov r8, r8)
    15dc:	000009c5 	.word	0x000009c5
    15e0:	2000029c 	.word	0x2000029c

000015e4 <_usb_d_dev_register_ep_callback>:
    15e4:	2900      	cmp	r1, #0
    15e6:	d100      	bne.n	15ea <_usb_d_dev_register_ep_callback+0x6>
    15e8:	4907      	ldr	r1, [pc, #28]	; (1608 <_usb_d_dev_register_ep_callback+0x24>)
    15ea:	2800      	cmp	r0, #0
    15ec:	d102      	bne.n	15f4 <_usb_d_dev_register_ep_callback+0x10>
    15ee:	4b07      	ldr	r3, [pc, #28]	; (160c <_usb_d_dev_register_ep_callback+0x28>)
    15f0:	6099      	str	r1, [r3, #8]
    15f2:	4770      	bx	lr
    15f4:	2801      	cmp	r0, #1
    15f6:	d102      	bne.n	15fe <_usb_d_dev_register_ep_callback+0x1a>
    15f8:	4b04      	ldr	r3, [pc, #16]	; (160c <_usb_d_dev_register_ep_callback+0x28>)
    15fa:	60d9      	str	r1, [r3, #12]
    15fc:	e7f9      	b.n	15f2 <_usb_d_dev_register_ep_callback+0xe>
    15fe:	2802      	cmp	r0, #2
    1600:	d1f7      	bne.n	15f2 <_usb_d_dev_register_ep_callback+0xe>
    1602:	4b02      	ldr	r3, [pc, #8]	; (160c <_usb_d_dev_register_ep_callback+0x28>)
    1604:	6119      	str	r1, [r3, #16]
    1606:	e7f4      	b.n	15f2 <_usb_d_dev_register_ep_callback+0xe>
    1608:	000009c5 	.word	0x000009c5
    160c:	2000029c 	.word	0x2000029c

00001610 <USB_Handler>:
    1610:	b5f7      	push	{r0, r1, r2, r4, r5, r6, r7, lr}
    1612:	4b65      	ldr	r3, [pc, #404]	; (17a8 <USB_Handler+0x198>)
    1614:	4d65      	ldr	r5, [pc, #404]	; (17ac <USB_Handler+0x19c>)
    1616:	8c1a      	ldrh	r2, [r3, #32]
    1618:	b292      	uxth	r2, r2
    161a:	9201      	str	r2, [sp, #4]
    161c:	2a00      	cmp	r2, #0
    161e:	d156      	bne.n	16ce <USB_Handler+0xbe>
    1620:	8b9a      	ldrh	r2, [r3, #28]
    1622:	8b1f      	ldrh	r7, [r3, #24]
    1624:	2004      	movs	r0, #4
    1626:	4017      	ands	r7, r2
    1628:	003a      	movs	r2, r7
    162a:	4002      	ands	r2, r0
    162c:	d003      	beq.n	1636 <USB_Handler+0x26>
    162e:	8398      	strh	r0, [r3, #28]
    1630:	682b      	ldr	r3, [r5, #0]
    1632:	4798      	blx	r3
    1634:	bdf7      	pop	{r0, r1, r2, r4, r5, r6, r7, pc}
    1636:	2180      	movs	r1, #128	; 0x80
    1638:	0089      	lsls	r1, r1, #2
    163a:	4039      	ands	r1, r7
    163c:	d01f      	beq.n	167e <USB_Handler+0x6e>
    163e:	495c      	ldr	r1, [pc, #368]	; (17b0 <USB_Handler+0x1a0>)
    1640:	8399      	strh	r1, [r3, #28]
    1642:	8299      	strh	r1, [r3, #20]
    1644:	3992      	subs	r1, #146	; 0x92
    1646:	39ff      	subs	r1, #255	; 0xff
    1648:	8319      	strh	r1, [r3, #24]
    164a:	4b5a      	ldr	r3, [pc, #360]	; (17b4 <USB_Handler+0x1a4>)
    164c:	8f19      	ldrh	r1, [r3, #56]	; 0x38
    164e:	0709      	lsls	r1, r1, #28
    1650:	0f09      	lsrs	r1, r1, #28
    1652:	2903      	cmp	r1, #3
    1654:	d008      	beq.n	1668 <USB_Handler+0x58>
    1656:	0019      	movs	r1, r3
    1658:	3158      	adds	r1, #88	; 0x58
    165a:	8808      	ldrh	r0, [r1, #0]
    165c:	0011      	movs	r1, r2
    165e:	0700      	lsls	r0, r0, #28
    1660:	0f00      	lsrs	r0, r0, #28
    1662:	2803      	cmp	r0, #3
    1664:	d107      	bne.n	1676 <USB_Handler+0x66>
    1666:	2201      	movs	r2, #1
    1668:	0152      	lsls	r2, r2, #5
    166a:	189a      	adds	r2, r3, r2
    166c:	2300      	movs	r3, #0
    166e:	8f11      	ldrh	r1, [r2, #56]	; 0x38
    1670:	8713      	strh	r3, [r2, #56]	; 0x38
    1672:	0449      	lsls	r1, r1, #17
    1674:	0d49      	lsrs	r1, r1, #21
    1676:	2003      	movs	r0, #3
    1678:	686b      	ldr	r3, [r5, #4]
    167a:	4798      	blx	r3
    167c:	e7da      	b.n	1634 <USB_Handler+0x24>
    167e:	2280      	movs	r2, #128	; 0x80
    1680:	003e      	movs	r6, r7
    1682:	4016      	ands	r6, r2
    1684:	d003      	beq.n	168e <USB_Handler+0x7e>
    1686:	839a      	strh	r2, [r3, #28]
    1688:	686b      	ldr	r3, [r5, #4]
    168a:	2005      	movs	r0, #5
    168c:	e7f5      	b.n	167a <USB_Handler+0x6a>
    168e:	2270      	movs	r2, #112	; 0x70
    1690:	003c      	movs	r4, r7
    1692:	4014      	ands	r4, r2
    1694:	d009      	beq.n	16aa <USB_Handler+0x9a>
    1696:	839a      	strh	r2, [r3, #28]
    1698:	829a      	strh	r2, [r3, #20]
    169a:	4a45      	ldr	r2, [pc, #276]	; (17b0 <USB_Handler+0x1a0>)
    169c:	831a      	strh	r2, [r3, #24]
    169e:	4b46      	ldr	r3, [pc, #280]	; (17b8 <USB_Handler+0x1a8>)
    16a0:	4798      	blx	r3
    16a2:	686b      	ldr	r3, [r5, #4]
    16a4:	0031      	movs	r1, r6
    16a6:	2002      	movs	r0, #2
    16a8:	e7e7      	b.n	167a <USB_Handler+0x6a>
    16aa:	2608      	movs	r6, #8
    16ac:	0039      	movs	r1, r7
    16ae:	4031      	ands	r1, r6
    16b0:	d00b      	beq.n	16ca <USB_Handler+0xba>
    16b2:	4942      	ldr	r1, [pc, #264]	; (17bc <USB_Handler+0x1ac>)
    16b4:	704c      	strb	r4, [r1, #1]
    16b6:	839e      	strh	r6, [r3, #28]
    16b8:	829a      	strh	r2, [r3, #20]
    16ba:	4a3d      	ldr	r2, [pc, #244]	; (17b0 <USB_Handler+0x1a0>)
    16bc:	831a      	strh	r2, [r3, #24]
    16be:	4b40      	ldr	r3, [pc, #256]	; (17c0 <USB_Handler+0x1b0>)
    16c0:	4798      	blx	r3
    16c2:	686b      	ldr	r3, [r5, #4]
    16c4:	0021      	movs	r1, r4
    16c6:	2001      	movs	r0, #1
    16c8:	e7d7      	b.n	167a <USB_Handler+0x6a>
    16ca:	07fc      	lsls	r4, r7, #31
    16cc:	d426      	bmi.n	171c <USB_Handler+0x10c>
    16ce:	002c      	movs	r4, r5
    16d0:	2700      	movs	r7, #0
    16d2:	2601      	movs	r6, #1
    16d4:	3414      	adds	r4, #20
    16d6:	7ca2      	ldrb	r2, [r4, #18]
    16d8:	2aff      	cmp	r2, #255	; 0xff
    16da:	d03e      	beq.n	175a <USB_Handler+0x14a>
    16dc:	230f      	movs	r3, #15
    16de:	401a      	ands	r2, r3
    16e0:	0033      	movs	r3, r6
    16e2:	4093      	lsls	r3, r2
    16e4:	9901      	ldr	r1, [sp, #4]
    16e6:	4219      	tst	r1, r3
    16e8:	d037      	beq.n	175a <USB_Handler+0x14a>
    16ea:	4936      	ldr	r1, [pc, #216]	; (17c4 <USB_Handler+0x1b4>)
    16ec:	0153      	lsls	r3, r2, #5
    16ee:	185b      	adds	r3, r3, r1
    16f0:	4932      	ldr	r1, [pc, #200]	; (17bc <USB_Handler+0x1ac>)
    16f2:	0152      	lsls	r2, r2, #5
    16f4:	1852      	adds	r2, r2, r1
    16f6:	781b      	ldrb	r3, [r3, #0]
    16f8:	7a92      	ldrb	r2, [r2, #10]
    16fa:	4013      	ands	r3, r2
    16fc:	d02d      	beq.n	175a <USB_Handler+0x14a>
    16fe:	2214      	movs	r2, #20
    1700:	2147      	movs	r1, #71	; 0x47
    1702:	437a      	muls	r2, r7
    1704:	18aa      	adds	r2, r5, r2
    1706:	3210      	adds	r2, #16
    1708:	7dd2      	ldrb	r2, [r2, #23]
    170a:	4011      	ands	r1, r2
    170c:	2901      	cmp	r1, #1
    170e:	d115      	bne.n	173c <USB_Handler+0x12c>
    1710:	06da      	lsls	r2, r3, #27
    1712:	d509      	bpl.n	1728 <USB_Handler+0x118>
    1714:	0020      	movs	r0, r4
    1716:	4b2c      	ldr	r3, [pc, #176]	; (17c8 <USB_Handler+0x1b8>)
    1718:	4798      	blx	r3
    171a:	e01e      	b.n	175a <USB_Handler+0x14a>
    171c:	4c24      	ldr	r4, [pc, #144]	; (17b0 <USB_Handler+0x1a0>)
    171e:	839c      	strh	r4, [r3, #28]
    1720:	829c      	strh	r4, [r3, #20]
    1722:	831a      	strh	r2, [r3, #24]
    1724:	686b      	ldr	r3, [r5, #4]
    1726:	e7a8      	b.n	167a <USB_Handler+0x6a>
    1728:	2140      	movs	r1, #64	; 0x40
    172a:	4019      	ands	r1, r3
    172c:	d001      	beq.n	1732 <USB_Handler+0x122>
    172e:	0031      	movs	r1, r6
    1730:	e001      	b.n	1736 <USB_Handler+0x126>
    1732:	069b      	lsls	r3, r3, #26
    1734:	d511      	bpl.n	175a <USB_Handler+0x14a>
    1736:	0020      	movs	r0, r4
    1738:	4b24      	ldr	r3, [pc, #144]	; (17cc <USB_Handler+0x1bc>)
    173a:	e00d      	b.n	1758 <USB_Handler+0x148>
    173c:	b251      	sxtb	r1, r2
    173e:	2900      	cmp	r1, #0
    1740:	da1a      	bge.n	1778 <USB_Handler+0x168>
    1742:	0659      	lsls	r1, r3, #25
    1744:	d4f3      	bmi.n	172e <USB_Handler+0x11e>
    1746:	0719      	lsls	r1, r3, #28
    1748:	d501      	bpl.n	174e <USB_Handler+0x13e>
    174a:	0031      	movs	r1, r6
    174c:	e01b      	b.n	1786 <USB_Handler+0x176>
    174e:	0799      	lsls	r1, r3, #30
    1750:	d508      	bpl.n	1764 <USB_Handler+0x154>
    1752:	0031      	movs	r1, r6
    1754:	0020      	movs	r0, r4
    1756:	4b1e      	ldr	r3, [pc, #120]	; (17d0 <USB_Handler+0x1c0>)
    1758:	4798      	blx	r3
    175a:	3701      	adds	r7, #1
    175c:	3414      	adds	r4, #20
    175e:	2f1b      	cmp	r7, #27
    1760:	d1b9      	bne.n	16d6 <USB_Handler+0xc6>
    1762:	e767      	b.n	1634 <USB_Handler+0x24>
    1764:	2107      	movs	r1, #7
    1766:	400a      	ands	r2, r1
    1768:	2a01      	cmp	r2, #1
    176a:	d1f6      	bne.n	175a <USB_Handler+0x14a>
    176c:	2100      	movs	r1, #0
    176e:	075a      	lsls	r2, r3, #29
    1770:	d409      	bmi.n	1786 <USB_Handler+0x176>
    1772:	06db      	lsls	r3, r3, #27
    1774:	d5f1      	bpl.n	175a <USB_Handler+0x14a>
    1776:	e7cd      	b.n	1714 <USB_Handler+0x104>
    1778:	2120      	movs	r1, #32
    177a:	4019      	ands	r1, r3
    177c:	d001      	beq.n	1782 <USB_Handler+0x172>
    177e:	2100      	movs	r1, #0
    1780:	e7d9      	b.n	1736 <USB_Handler+0x126>
    1782:	0758      	lsls	r0, r3, #29
    1784:	d502      	bpl.n	178c <USB_Handler+0x17c>
    1786:	0020      	movs	r0, r4
    1788:	4b12      	ldr	r3, [pc, #72]	; (17d4 <USB_Handler+0x1c4>)
    178a:	e7e5      	b.n	1758 <USB_Handler+0x148>
    178c:	4233      	tst	r3, r6
    178e:	d003      	beq.n	1798 <USB_Handler+0x188>
    1790:	0031      	movs	r1, r6
    1792:	0020      	movs	r0, r4
    1794:	4b10      	ldr	r3, [pc, #64]	; (17d8 <USB_Handler+0x1c8>)
    1796:	e7df      	b.n	1758 <USB_Handler+0x148>
    1798:	2107      	movs	r1, #7
    179a:	400a      	ands	r2, r1
    179c:	2a01      	cmp	r2, #1
    179e:	d1dc      	bne.n	175a <USB_Handler+0x14a>
    17a0:	071a      	lsls	r2, r3, #28
    17a2:	d5e6      	bpl.n	1772 <USB_Handler+0x162>
    17a4:	e7d1      	b.n	174a <USB_Handler+0x13a>
    17a6:	46c0      	nop			; (mov r8, r8)
    17a8:	41005000 	.word	0x41005000
    17ac:	2000029c 	.word	0x2000029c
    17b0:	00000201 	.word	0x00000201
    17b4:	2000049c 	.word	0x2000049c
    17b8:	000009c9 	.word	0x000009c9
    17bc:	410050ff 	.word	0x410050ff
    17c0:	00000c19 	.word	0x00000c19
    17c4:	41005107 	.word	0x41005107
    17c8:	00000a09 	.word	0x00000a09
    17cc:	00000a85 	.word	0x00000a85
    17d0:	00000c59 	.word	0x00000c59
    17d4:	00000b35 	.word	0x00000b35
    17d8:	00000dc9 	.word	0x00000dc9

000017dc <hid_keyboard_req>:
    17dc:	780a      	ldrb	r2, [r1, #0]
    17de:	b570      	push	{r4, r5, r6, lr}
    17e0:	2a81      	cmp	r2, #129	; 0x81
    17e2:	d11b      	bne.n	181c <hid_keyboard_req+0x40>
    17e4:	784b      	ldrb	r3, [r1, #1]
    17e6:	2b06      	cmp	r3, #6
    17e8:	d118      	bne.n	181c <hid_keyboard_req+0x40>
    17ea:	4c1b      	ldr	r4, [pc, #108]	; (1858 <hid_keyboard_req+0x7c>)
    17ec:	794b      	ldrb	r3, [r1, #5]
    17ee:	790e      	ldrb	r6, [r1, #4]
    17f0:	7b25      	ldrb	r5, [r4, #12]
    17f2:	021b      	lsls	r3, r3, #8
    17f4:	4333      	orrs	r3, r6
    17f6:	429d      	cmp	r5, r3
    17f8:	d110      	bne.n	181c <hid_keyboard_req+0x40>
    17fa:	78cb      	ldrb	r3, [r1, #3]
    17fc:	2b21      	cmp	r3, #33	; 0x21
    17fe:	d003      	beq.n	1808 <hid_keyboard_req+0x2c>
    1800:	2b22      	cmp	r3, #34	; 0x22
    1802:	d005      	beq.n	1810 <hid_keyboard_req+0x34>
    1804:	200d      	movs	r0, #13
    1806:	e024      	b.n	1852 <hid_keyboard_req+0x76>
    1808:	6821      	ldr	r1, [r4, #0]
    180a:	780a      	ldrb	r2, [r1, #0]
    180c:	2300      	movs	r3, #0
    180e:	e002      	b.n	1816 <hid_keyboard_req+0x3a>
    1810:	2300      	movs	r3, #0
    1812:	223b      	movs	r2, #59	; 0x3b
    1814:	4911      	ldr	r1, [pc, #68]	; (185c <hid_keyboard_req+0x80>)
    1816:	4c12      	ldr	r4, [pc, #72]	; (1860 <hid_keyboard_req+0x84>)
    1818:	47a0      	blx	r4
    181a:	bd70      	pop	{r4, r5, r6, pc}
    181c:	0652      	lsls	r2, r2, #25
    181e:	0f92      	lsrs	r2, r2, #30
    1820:	2a01      	cmp	r2, #1
    1822:	d115      	bne.n	1850 <hid_keyboard_req+0x74>
    1824:	4b0c      	ldr	r3, [pc, #48]	; (1858 <hid_keyboard_req+0x7c>)
    1826:	794c      	ldrb	r4, [r1, #5]
    1828:	790e      	ldrb	r6, [r1, #4]
    182a:	7b1d      	ldrb	r5, [r3, #12]
    182c:	0224      	lsls	r4, r4, #8
    182e:	4334      	orrs	r4, r6
    1830:	42a5      	cmp	r5, r4
    1832:	d10d      	bne.n	1850 <hid_keyboard_req+0x74>
    1834:	784c      	ldrb	r4, [r1, #1]
    1836:	2c03      	cmp	r4, #3
    1838:	d007      	beq.n	184a <hid_keyboard_req+0x6e>
    183a:	2c0b      	cmp	r4, #11
    183c:	d1e2      	bne.n	1804 <hid_keyboard_req+0x28>
    183e:	788a      	ldrb	r2, [r1, #2]
    1840:	73da      	strb	r2, [r3, #15]
    1842:	2300      	movs	r3, #0
    1844:	001a      	movs	r2, r3
    1846:	0019      	movs	r1, r3
    1848:	e7e5      	b.n	1816 <hid_keyboard_req+0x3a>
    184a:	330f      	adds	r3, #15
    184c:	0019      	movs	r1, r3
    184e:	e7dd      	b.n	180c <hid_keyboard_req+0x30>
    1850:	200a      	movs	r0, #10
    1852:	4240      	negs	r0, r0
    1854:	e7e1      	b.n	181a <hid_keyboard_req+0x3e>
    1856:	46c0      	nop			; (mov r8, r8)
    1858:	20000574 	.word	0x20000574
    185c:	000038a8 	.word	0x000038a8
    1860:	00001bd1 	.word	0x00001bd1

00001864 <hid_keyboard_ctrl>:
    1864:	b5f7      	push	{r0, r1, r2, r4, r5, r6, r7, lr}
    1866:	0015      	movs	r5, r2
    1868:	2901      	cmp	r1, #1
    186a:	d04b      	beq.n	1904 <hid_keyboard_ctrl+0xa0>
    186c:	2900      	cmp	r1, #0
    186e:	d004      	beq.n	187a <hid_keyboard_ctrl+0x16>
    1870:	240d      	movs	r4, #13
    1872:	2902      	cmp	r1, #2
    1874:	d106      	bne.n	1884 <hid_keyboard_ctrl+0x20>
    1876:	241b      	movs	r4, #27
    1878:	e004      	b.n	1884 <hid_keyboard_ctrl+0x20>
    187a:	6887      	ldr	r7, [r0, #8]
    187c:	6810      	ldr	r0, [r2, #0]
    187e:	2800      	cmp	r0, #0
    1880:	d102      	bne.n	1888 <hid_keyboard_ctrl+0x24>
    1882:	240a      	movs	r4, #10
    1884:	4264      	negs	r4, r4
    1886:	e039      	b.n	18fc <hid_keyboard_ctrl+0x98>
    1888:	7942      	ldrb	r2, [r0, #5]
    188a:	7883      	ldrb	r3, [r0, #2]
    188c:	2a03      	cmp	r2, #3
    188e:	d1f8      	bne.n	1882 <hid_keyboard_ctrl+0x1e>
    1890:	7b3a      	ldrb	r2, [r7, #12]
    1892:	4293      	cmp	r3, r2
    1894:	d054      	beq.n	1940 <hid_keyboard_ctrl+0xdc>
    1896:	2aff      	cmp	r2, #255	; 0xff
    1898:	d154      	bne.n	1944 <hid_keyboard_ctrl+0xe0>
    189a:	733b      	strb	r3, [r7, #12]
    189c:	7803      	ldrb	r3, [r0, #0]
    189e:	3ade      	subs	r2, #222	; 0xde
    18a0:	18c0      	adds	r0, r0, r3
    18a2:	6869      	ldr	r1, [r5, #4]
    18a4:	4b29      	ldr	r3, [pc, #164]	; (194c <hid_keyboard_ctrl+0xe8>)
    18a6:	4798      	blx	r3
    18a8:	4b29      	ldr	r3, [pc, #164]	; (1950 <hid_keyboard_ctrl+0xec>)
    18aa:	6018      	str	r0, [r3, #0]
    18ac:	2302      	movs	r3, #2
    18ae:	9301      	str	r3, [sp, #4]
    18b0:	6828      	ldr	r0, [r5, #0]
    18b2:	6869      	ldr	r1, [r5, #4]
    18b4:	7803      	ldrb	r3, [r0, #0]
    18b6:	18c0      	adds	r0, r0, r3
    18b8:	4b26      	ldr	r3, [pc, #152]	; (1954 <hid_keyboard_ctrl+0xf0>)
    18ba:	4798      	blx	r3
    18bc:	6028      	str	r0, [r5, #0]
    18be:	2800      	cmp	r0, #0
    18c0:	d0df      	beq.n	1882 <hid_keyboard_ctrl+0x1e>
    18c2:	7943      	ldrb	r3, [r0, #5]
    18c4:	7902      	ldrb	r2, [r0, #4]
    18c6:	7886      	ldrb	r6, [r0, #2]
    18c8:	021b      	lsls	r3, r3, #8
    18ca:	18d2      	adds	r2, r2, r3
    18cc:	78c1      	ldrb	r1, [r0, #3]
    18ce:	b292      	uxth	r2, r2
    18d0:	0030      	movs	r0, r6
    18d2:	4b21      	ldr	r3, [pc, #132]	; (1958 <hid_keyboard_ctrl+0xf4>)
    18d4:	4798      	blx	r3
    18d6:	1e04      	subs	r4, r0, #0
    18d8:	d136      	bne.n	1948 <hid_keyboard_ctrl+0xe4>
    18da:	b273      	sxtb	r3, r6
    18dc:	4a1f      	ldr	r2, [pc, #124]	; (195c <hid_keyboard_ctrl+0xf8>)
    18de:	2b00      	cmp	r3, #0
    18e0:	da0e      	bge.n	1900 <hid_keyboard_ctrl+0x9c>
    18e2:	737e      	strb	r6, [r7, #13]
    18e4:	0030      	movs	r0, r6
    18e6:	4790      	blx	r2
    18e8:	9b01      	ldr	r3, [sp, #4]
    18ea:	3b01      	subs	r3, #1
    18ec:	b2db      	uxtb	r3, r3
    18ee:	9301      	str	r3, [sp, #4]
    18f0:	2b00      	cmp	r3, #0
    18f2:	d1dd      	bne.n	18b0 <hid_keyboard_ctrl+0x4c>
    18f4:	4a16      	ldr	r2, [pc, #88]	; (1950 <hid_keyboard_ctrl+0xec>)
    18f6:	3301      	adds	r3, #1
    18f8:	73d3      	strb	r3, [r2, #15]
    18fa:	7413      	strb	r3, [r2, #16]
    18fc:	0020      	movs	r0, r4
    18fe:	bdfe      	pop	{r1, r2, r3, r4, r5, r6, r7, pc}
    1900:	73be      	strb	r6, [r7, #14]
    1902:	e7ef      	b.n	18e4 <hid_keyboard_ctrl+0x80>
    1904:	6884      	ldr	r4, [r0, #8]
    1906:	2a00      	cmp	r2, #0
    1908:	d003      	beq.n	1912 <hid_keyboard_ctrl+0xae>
    190a:	6813      	ldr	r3, [r2, #0]
    190c:	795b      	ldrb	r3, [r3, #5]
    190e:	2b03      	cmp	r3, #3
    1910:	d1b7      	bne.n	1882 <hid_keyboard_ctrl+0x1e>
    1912:	7b23      	ldrb	r3, [r4, #12]
    1914:	2bff      	cmp	r3, #255	; 0xff
    1916:	d001      	beq.n	191c <hid_keyboard_ctrl+0xb8>
    1918:	23ff      	movs	r3, #255	; 0xff
    191a:	7323      	strb	r3, [r4, #12]
    191c:	7b60      	ldrb	r0, [r4, #13]
    191e:	28ff      	cmp	r0, #255	; 0xff
    1920:	d003      	beq.n	192a <hid_keyboard_ctrl+0xc6>
    1922:	4b0f      	ldr	r3, [pc, #60]	; (1960 <hid_keyboard_ctrl+0xfc>)
    1924:	4798      	blx	r3
    1926:	23ff      	movs	r3, #255	; 0xff
    1928:	7363      	strb	r3, [r4, #13]
    192a:	7ba0      	ldrb	r0, [r4, #14]
    192c:	28ff      	cmp	r0, #255	; 0xff
    192e:	d003      	beq.n	1938 <hid_keyboard_ctrl+0xd4>
    1930:	4b0b      	ldr	r3, [pc, #44]	; (1960 <hid_keyboard_ctrl+0xfc>)
    1932:	4798      	blx	r3
    1934:	23ff      	movs	r3, #255	; 0xff
    1936:	73a3      	strb	r3, [r4, #14]
    1938:	2400      	movs	r4, #0
    193a:	4b05      	ldr	r3, [pc, #20]	; (1950 <hid_keyboard_ctrl+0xec>)
    193c:	741c      	strb	r4, [r3, #16]
    193e:	e7dd      	b.n	18fc <hid_keyboard_ctrl+0x98>
    1940:	2412      	movs	r4, #18
    1942:	e79f      	b.n	1884 <hid_keyboard_ctrl+0x20>
    1944:	241c      	movs	r4, #28
    1946:	e79d      	b.n	1884 <hid_keyboard_ctrl+0x20>
    1948:	2414      	movs	r4, #20
    194a:	e79b      	b.n	1884 <hid_keyboard_ctrl+0x20>
    194c:	00001fe9 	.word	0x00001fe9
    1950:	20000574 	.word	0x20000574
    1954:	00002003 	.word	0x00002003
    1958:	0000058d 	.word	0x0000058d
    195c:	0000061d 	.word	0x0000061d
    1960:	000005f1 	.word	0x000005f1

00001964 <hiddf_keyboard_init>:
    1964:	b510      	push	{r4, lr}
    1966:	4b0a      	ldr	r3, [pc, #40]	; (1990 <hiddf_keyboard_init+0x2c>)
    1968:	4798      	blx	r3
    196a:	2801      	cmp	r0, #1
    196c:	d80c      	bhi.n	1988 <hiddf_keyboard_init+0x24>
    196e:	4809      	ldr	r0, [pc, #36]	; (1994 <hiddf_keyboard_init+0x30>)
    1970:	4b09      	ldr	r3, [pc, #36]	; (1998 <hiddf_keyboard_init+0x34>)
    1972:	61c0      	str	r0, [r0, #28]
    1974:	6183      	str	r3, [r0, #24]
    1976:	3014      	adds	r0, #20
    1978:	4b08      	ldr	r3, [pc, #32]	; (199c <hiddf_keyboard_init+0x38>)
    197a:	4798      	blx	r3
    197c:	2001      	movs	r0, #1
    197e:	4908      	ldr	r1, [pc, #32]	; (19a0 <hiddf_keyboard_init+0x3c>)
    1980:	4b08      	ldr	r3, [pc, #32]	; (19a4 <hiddf_keyboard_init+0x40>)
    1982:	4798      	blx	r3
    1984:	2000      	movs	r0, #0
    1986:	bd10      	pop	{r4, pc}
    1988:	2011      	movs	r0, #17
    198a:	4240      	negs	r0, r0
    198c:	e7fb      	b.n	1986 <hiddf_keyboard_init+0x22>
    198e:	46c0      	nop			; (mov r8, r8)
    1990:	00001fd5 	.word	0x00001fd5
    1994:	20000574 	.word	0x20000574
    1998:	00001865 	.word	0x00001865
    199c:	00001f7d 	.word	0x00001f7d
    19a0:	20000000 	.word	0x20000000
    19a4:	00001f09 	.word	0x00001f09

000019a8 <hiddf_keyboard_is_enabled>:
    19a8:	4b01      	ldr	r3, [pc, #4]	; (19b0 <hiddf_keyboard_is_enabled+0x8>)
    19aa:	7c18      	ldrb	r0, [r3, #16]
    19ac:	4770      	bx	lr
    19ae:	46c0      	nop			; (mov r8, r8)
    19b0:	20000574 	.word	0x20000574

000019b4 <hiddf_keyboard_keys_state_change>:
    19b4:	b5f7      	push	{r0, r1, r2, r4, r5, r6, r7, lr}
    19b6:	4d22      	ldr	r5, [pc, #136]	; (1a40 <hiddf_keyboard_keys_state_change+0x8c>)
    19b8:	0004      	movs	r4, r0
    19ba:	7c2b      	ldrb	r3, [r5, #16]
    19bc:	000e      	movs	r6, r1
    19be:	2b00      	cmp	r3, #0
    19c0:	d03a      	beq.n	1a38 <hiddf_keyboard_keys_state_change+0x84>
    19c2:	2208      	movs	r2, #8
    19c4:	2100      	movs	r1, #0
    19c6:	1d28      	adds	r0, r5, #4
    19c8:	4f1e      	ldr	r7, [pc, #120]	; (1a44 <hiddf_keyboard_keys_state_change+0x90>)
    19ca:	47b8      	blx	r7
    19cc:	2303      	movs	r3, #3
    19ce:	4373      	muls	r3, r6
    19d0:	1c58      	adds	r0, r3, #1
    19d2:	1822      	adds	r2, r4, r0
    19d4:	9201      	str	r2, [sp, #4]
    19d6:	2200      	movs	r2, #0
    19d8:	1c61      	adds	r1, r4, #1
    19da:	9801      	ldr	r0, [sp, #4]
    19dc:	4281      	cmp	r1, r0
    19de:	d114      	bne.n	1a0a <hiddf_keyboard_keys_state_change+0x56>
    19e0:	1ab6      	subs	r6, r6, r2
    19e2:	b2f6      	uxtb	r6, r6
    19e4:	2e06      	cmp	r6, #6
    19e6:	d817      	bhi.n	1a18 <hiddf_keyboard_keys_state_change+0x64>
    19e8:	0020      	movs	r0, r4
    19ea:	2202      	movs	r2, #2
    19ec:	18e3      	adds	r3, r4, r3
    19ee:	4298      	cmp	r0, r3
    19f0:	d016      	beq.n	1a20 <hiddf_keyboard_keys_state_change+0x6c>
    19f2:	7881      	ldrb	r1, [r0, #2]
    19f4:	2901      	cmp	r1, #1
    19f6:	d106      	bne.n	1a06 <hiddf_keyboard_keys_state_change+0x52>
    19f8:	7841      	ldrb	r1, [r0, #1]
    19fa:	7804      	ldrb	r4, [r0, #0]
    19fc:	2900      	cmp	r1, #0
    19fe:	d016      	beq.n	1a2e <hiddf_keyboard_keys_state_change+0x7a>
    1a00:	7929      	ldrb	r1, [r5, #4]
    1a02:	4321      	orrs	r1, r4
    1a04:	7129      	strb	r1, [r5, #4]
    1a06:	3003      	adds	r0, #3
    1a08:	e7f1      	b.n	19ee <hiddf_keyboard_keys_state_change+0x3a>
    1a0a:	7808      	ldrb	r0, [r1, #0]
    1a0c:	2800      	cmp	r0, #0
    1a0e:	d001      	beq.n	1a14 <hiddf_keyboard_keys_state_change+0x60>
    1a10:	3201      	adds	r2, #1
    1a12:	b2d2      	uxtb	r2, r2
    1a14:	3103      	adds	r1, #3
    1a16:	e7e0      	b.n	19da <hiddf_keyboard_keys_state_change+0x26>
    1a18:	1da8      	adds	r0, r5, #6
    1a1a:	2206      	movs	r2, #6
    1a1c:	21ff      	movs	r1, #255	; 0xff
    1a1e:	47b8      	blx	r7
    1a20:	1d29      	adds	r1, r5, #4
    1a22:	7b68      	ldrb	r0, [r5, #13]
    1a24:	2300      	movs	r3, #0
    1a26:	2208      	movs	r2, #8
    1a28:	4c07      	ldr	r4, [pc, #28]	; (1a48 <hiddf_keyboard_keys_state_change+0x94>)
    1a2a:	47a0      	blx	r4
    1a2c:	bdfe      	pop	{r1, r2, r3, r4, r5, r6, r7, pc}
    1a2e:	1c51      	adds	r1, r2, #1
    1a30:	18aa      	adds	r2, r5, r2
    1a32:	7114      	strb	r4, [r2, #4]
    1a34:	b2ca      	uxtb	r2, r1
    1a36:	e7e6      	b.n	1a06 <hiddf_keyboard_keys_state_change+0x52>
    1a38:	2011      	movs	r0, #17
    1a3a:	4240      	negs	r0, r0
    1a3c:	e7f6      	b.n	1a2c <hiddf_keyboard_keys_state_change+0x78>
    1a3e:	46c0      	nop			; (mov r8, r8)
    1a40:	20000574 	.word	0x20000574
    1a44:	000029d7 	.word	0x000029d7
    1a48:	00001bd1 	.word	0x00001bd1

00001a4c <usbdc_unconfig>:
    1a4c:	4b06      	ldr	r3, [pc, #24]	; (1a68 <usbdc_unconfig+0x1c>)
    1a4e:	b510      	push	{r4, lr}
    1a50:	691c      	ldr	r4, [r3, #16]
    1a52:	2c00      	cmp	r4, #0
    1a54:	d100      	bne.n	1a58 <usbdc_unconfig+0xc>
    1a56:	bd10      	pop	{r4, pc}
    1a58:	0020      	movs	r0, r4
    1a5a:	6863      	ldr	r3, [r4, #4]
    1a5c:	2200      	movs	r2, #0
    1a5e:	2101      	movs	r1, #1
    1a60:	4798      	blx	r3
    1a62:	6824      	ldr	r4, [r4, #0]
    1a64:	e7f5      	b.n	1a52 <usbdc_unconfig+0x6>
    1a66:	46c0      	nop			; (mov r8, r8)
    1a68:	20000594 	.word	0x20000594

00001a6c <usbdc_change_notify>:
    1a6c:	b570      	push	{r4, r5, r6, lr}
    1a6e:	0005      	movs	r5, r0
    1a70:	000e      	movs	r6, r1
    1a72:	4b06      	ldr	r3, [pc, #24]	; (1a8c <usbdc_change_notify+0x20>)
    1a74:	68dc      	ldr	r4, [r3, #12]
    1a76:	2c00      	cmp	r4, #0
    1a78:	d100      	bne.n	1a7c <usbdc_change_notify+0x10>
    1a7a:	bd70      	pop	{r4, r5, r6, pc}
    1a7c:	6863      	ldr	r3, [r4, #4]
    1a7e:	2b00      	cmp	r3, #0
    1a80:	d002      	beq.n	1a88 <usbdc_change_notify+0x1c>
    1a82:	0031      	movs	r1, r6
    1a84:	0028      	movs	r0, r5
    1a86:	4798      	blx	r3
    1a88:	6824      	ldr	r4, [r4, #0]
    1a8a:	e7f4      	b.n	1a76 <usbdc_change_notify+0xa>
    1a8c:	20000594 	.word	0x20000594

00001a90 <usbdc_request_handler>:
    1a90:	b5f8      	push	{r3, r4, r5, r6, r7, lr}
    1a92:	0005      	movs	r5, r0
    1a94:	000e      	movs	r6, r1
    1a96:	0017      	movs	r7, r2
    1a98:	4b0b      	ldr	r3, [pc, #44]	; (1ac8 <usbdc_request_handler+0x38>)
    1a9a:	689c      	ldr	r4, [r3, #8]
    1a9c:	2c00      	cmp	r4, #0
    1a9e:	d101      	bne.n	1aa4 <usbdc_request_handler+0x14>
    1aa0:	0020      	movs	r0, r4
    1aa2:	bdf8      	pop	{r3, r4, r5, r6, r7, pc}
    1aa4:	6863      	ldr	r3, [r4, #4]
    1aa6:	2b00      	cmp	r3, #0
    1aa8:	d101      	bne.n	1aae <usbdc_request_handler+0x1e>
    1aaa:	6824      	ldr	r4, [r4, #0]
    1aac:	e7f6      	b.n	1a9c <usbdc_request_handler+0xc>
    1aae:	003a      	movs	r2, r7
    1ab0:	0031      	movs	r1, r6
    1ab2:	0028      	movs	r0, r5
    1ab4:	4798      	blx	r3
    1ab6:	2800      	cmp	r0, #0
    1ab8:	d004      	beq.n	1ac4 <usbdc_request_handler+0x34>
    1aba:	300a      	adds	r0, #10
    1abc:	d0f5      	beq.n	1aaa <usbdc_request_handler+0x1a>
    1abe:	2001      	movs	r0, #1
    1ac0:	4240      	negs	r0, r0
    1ac2:	e7ee      	b.n	1aa2 <usbdc_request_handler+0x12>
    1ac4:	2001      	movs	r0, #1
    1ac6:	e7ec      	b.n	1aa2 <usbdc_request_handler+0x12>
    1ac8:	20000594 	.word	0x20000594

00001acc <usbd_sof_cb>:
    1acc:	4b05      	ldr	r3, [pc, #20]	; (1ae4 <usbd_sof_cb+0x18>)
    1ace:	b510      	push	{r4, lr}
    1ad0:	685c      	ldr	r4, [r3, #4]
    1ad2:	2c00      	cmp	r4, #0
    1ad4:	d100      	bne.n	1ad8 <usbd_sof_cb+0xc>
    1ad6:	bd10      	pop	{r4, pc}
    1ad8:	6863      	ldr	r3, [r4, #4]
    1ada:	2b00      	cmp	r3, #0
    1adc:	d000      	beq.n	1ae0 <usbd_sof_cb+0x14>
    1ade:	4798      	blx	r3
    1ae0:	6824      	ldr	r4, [r4, #0]
    1ae2:	e7f6      	b.n	1ad2 <usbd_sof_cb+0x6>
    1ae4:	20000594 	.word	0x20000594

00001ae8 <usbdc_cb_ctl_done>:
    1ae8:	b510      	push	{r4, lr}
    1aea:	0014      	movs	r4, r2
    1aec:	2900      	cmp	r1, #0
    1aee:	d003      	beq.n	1af8 <usbdc_cb_ctl_done+0x10>
    1af0:	2901      	cmp	r1, #1
    1af2:	d023      	beq.n	1b3c <usbdc_cb_ctl_done+0x54>
    1af4:	2000      	movs	r0, #0
    1af6:	bd10      	pop	{r4, pc}
    1af8:	7813      	ldrb	r3, [r2, #0]
    1afa:	2b00      	cmp	r3, #0
    1afc:	d1fa      	bne.n	1af4 <usbdc_cb_ctl_done+0xc>
    1afe:	7853      	ldrb	r3, [r2, #1]
    1b00:	2b05      	cmp	r3, #5
    1b02:	d00f      	beq.n	1b24 <usbdc_cb_ctl_done+0x3c>
    1b04:	2b09      	cmp	r3, #9
    1b06:	d1f5      	bne.n	1af4 <usbdc_cb_ctl_done+0xc>
    1b08:	78d1      	ldrb	r1, [r2, #3]
    1b0a:	7893      	ldrb	r3, [r2, #2]
    1b0c:	0209      	lsls	r1, r1, #8
    1b0e:	4319      	orrs	r1, r3
    1b10:	4b0d      	ldr	r3, [pc, #52]	; (1b48 <usbdc_cb_ctl_done+0x60>)
    1b12:	76d9      	strb	r1, [r3, #27]
    1b14:	1e4a      	subs	r2, r1, #1
    1b16:	4191      	sbcs	r1, r2
    1b18:	3103      	adds	r1, #3
    1b1a:	7699      	strb	r1, [r3, #26]
    1b1c:	2001      	movs	r0, #1
    1b1e:	4b0b      	ldr	r3, [pc, #44]	; (1b4c <usbdc_cb_ctl_done+0x64>)
    1b20:	4798      	blx	r3
    1b22:	e7e7      	b.n	1af4 <usbdc_cb_ctl_done+0xc>
    1b24:	4b0a      	ldr	r3, [pc, #40]	; (1b50 <usbdc_cb_ctl_done+0x68>)
    1b26:	7890      	ldrb	r0, [r2, #2]
    1b28:	4798      	blx	r3
    1b2a:	78e1      	ldrb	r1, [r4, #3]
    1b2c:	78a3      	ldrb	r3, [r4, #2]
    1b2e:	0209      	lsls	r1, r1, #8
    1b30:	4319      	orrs	r1, r3
    1b32:	1e4b      	subs	r3, r1, #1
    1b34:	4199      	sbcs	r1, r3
    1b36:	4b04      	ldr	r3, [pc, #16]	; (1b48 <usbdc_cb_ctl_done+0x60>)
    1b38:	3102      	adds	r1, #2
    1b3a:	e7ee      	b.n	1b1a <usbdc_cb_ctl_done+0x32>
    1b3c:	000a      	movs	r2, r1
    1b3e:	4b05      	ldr	r3, [pc, #20]	; (1b54 <usbdc_cb_ctl_done+0x6c>)
    1b40:	0021      	movs	r1, r4
    1b42:	2000      	movs	r0, #0
    1b44:	4798      	blx	r3
    1b46:	e7d5      	b.n	1af4 <usbdc_cb_ctl_done+0xc>
    1b48:	20000594 	.word	0x20000594
    1b4c:	00001a6d 	.word	0x00001a6d
    1b50:	00000581 	.word	0x00000581
    1b54:	00001a91 	.word	0x00001a91

00001b58 <usbdc_reset>:
    1b58:	b570      	push	{r4, r5, r6, lr}
    1b5a:	2400      	movs	r4, #0
    1b5c:	2602      	movs	r6, #2
    1b5e:	4b0c      	ldr	r3, [pc, #48]	; (1b90 <usbdc_reset+0x38>)
    1b60:	4798      	blx	r3
    1b62:	4d0c      	ldr	r5, [pc, #48]	; (1b94 <usbdc_reset+0x3c>)
    1b64:	0020      	movs	r0, r4
    1b66:	4b0c      	ldr	r3, [pc, #48]	; (1b98 <usbdc_reset+0x40>)
    1b68:	76ae      	strb	r6, [r5, #26]
    1b6a:	76ec      	strb	r4, [r5, #27]
    1b6c:	776c      	strb	r4, [r5, #29]
    1b6e:	4798      	blx	r3
    1b70:	4b0a      	ldr	r3, [pc, #40]	; (1b9c <usbdc_reset+0x44>)
    1b72:	7f28      	ldrb	r0, [r5, #28]
    1b74:	4798      	blx	r3
    1b76:	4d0a      	ldr	r5, [pc, #40]	; (1ba0 <usbdc_reset+0x48>)
    1b78:	0021      	movs	r1, r4
    1b7a:	0020      	movs	r0, r4
    1b7c:	4a09      	ldr	r2, [pc, #36]	; (1ba4 <usbdc_reset+0x4c>)
    1b7e:	47a8      	blx	r5
    1b80:	0031      	movs	r1, r6
    1b82:	4a09      	ldr	r2, [pc, #36]	; (1ba8 <usbdc_reset+0x50>)
    1b84:	0020      	movs	r0, r4
    1b86:	47a8      	blx	r5
    1b88:	0020      	movs	r0, r4
    1b8a:	4b08      	ldr	r3, [pc, #32]	; (1bac <usbdc_reset+0x54>)
    1b8c:	4798      	blx	r3
    1b8e:	bd70      	pop	{r4, r5, r6, pc}
    1b90:	00001a4d 	.word	0x00001a4d
    1b94:	20000594 	.word	0x20000594
    1b98:	000005f1 	.word	0x000005f1
    1b9c:	000005dd 	.word	0x000005dd
    1ba0:	000007b5 	.word	0x000007b5
    1ba4:	00001bed 	.word	0x00001bed
    1ba8:	00001ae9 	.word	0x00001ae9
    1bac:	0000061d 	.word	0x0000061d

00001bb0 <usbd_event_cb>:
    1bb0:	b510      	push	{r4, lr}
    1bb2:	2800      	cmp	r0, #0
    1bb4:	d002      	beq.n	1bbc <usbd_event_cb+0xc>
    1bb6:	2801      	cmp	r0, #1
    1bb8:	d003      	beq.n	1bc2 <usbd_event_cb+0x12>
    1bba:	bd10      	pop	{r4, pc}
    1bbc:	4b02      	ldr	r3, [pc, #8]	; (1bc8 <usbd_event_cb+0x18>)
    1bbe:	4798      	blx	r3
    1bc0:	e7fb      	b.n	1bba <usbd_event_cb+0xa>
    1bc2:	4b02      	ldr	r3, [pc, #8]	; (1bcc <usbd_event_cb+0x1c>)
    1bc4:	4798      	blx	r3
    1bc6:	e7f8      	b.n	1bba <usbd_event_cb+0xa>
    1bc8:	00001a6d 	.word	0x00001a6d
    1bcc:	00001b59 	.word	0x00001b59

00001bd0 <usbdc_xfer>:
    1bd0:	b51f      	push	{r0, r1, r2, r3, r4, lr}
    1bd2:	ac01      	add	r4, sp, #4
    1bd4:	7220      	strb	r0, [r4, #8]
    1bd6:	7263      	strb	r3, [r4, #9]
    1bd8:	0020      	movs	r0, r4
    1bda:	4b03      	ldr	r3, [pc, #12]	; (1be8 <usbdc_xfer+0x18>)
    1bdc:	9101      	str	r1, [sp, #4]
    1bde:	9202      	str	r2, [sp, #8]
    1be0:	4798      	blx	r3
    1be2:	b004      	add	sp, #16
    1be4:	bd10      	pop	{r4, pc}
    1be6:	46c0      	nop			; (mov r8, r8)
    1be8:	0000065d 	.word	0x0000065d

00001bec <usbdc_cb_ctl_req>:
    1bec:	b5f7      	push	{r0, r1, r2, r4, r5, r6, r7, lr}
    1bee:	4bb3      	ldr	r3, [pc, #716]	; (1ebc <usbdc_cb_ctl_req+0x2d0>)
    1bf0:	2200      	movs	r2, #0
    1bf2:	0004      	movs	r4, r0
    1bf4:	000d      	movs	r5, r1
    1bf6:	4798      	blx	r3
    1bf8:	2200      	movs	r2, #0
    1bfa:	1c43      	adds	r3, r0, #1
    1bfc:	d100      	bne.n	1c00 <usbdc_cb_ctl_req+0x14>
    1bfe:	e15a      	b.n	1eb6 <usbdc_cb_ctl_req+0x2ca>
    1c00:	3201      	adds	r2, #1
    1c02:	4290      	cmp	r0, r2
    1c04:	d100      	bne.n	1c08 <usbdc_cb_ctl_req+0x1c>
    1c06:	e156      	b.n	1eb6 <usbdc_cb_ctl_req+0x2ca>
    1c08:	7829      	ldrb	r1, [r5, #0]
    1c0a:	231f      	movs	r3, #31
    1c0c:	000a      	movs	r2, r1
    1c0e:	439a      	bics	r2, r3
    1c10:	d004      	beq.n	1c1c <usbdc_cb_ctl_req+0x30>
    1c12:	2a80      	cmp	r2, #128	; 0x80
    1c14:	d100      	bne.n	1c18 <usbdc_cb_ctl_req+0x2c>
    1c16:	e0b1      	b.n	1d7c <usbdc_cb_ctl_req+0x190>
    1c18:	2200      	movs	r2, #0
    1c1a:	e14c      	b.n	1eb6 <usbdc_cb_ctl_req+0x2ca>
    1c1c:	7868      	ldrb	r0, [r5, #1]
    1c1e:	3801      	subs	r0, #1
    1c20:	280a      	cmp	r0, #10
    1c22:	d8f9      	bhi.n	1c18 <usbdc_cb_ctl_req+0x2c>
    1c24:	f000 fde0 	bl	27e8 <__gnu_thumb1_case_sqi>
    1c28:	f854f842 	.word	0xf854f842
    1c2c:	f8f8f80b 	.word	0xf8f8f80b
    1c30:	f806      	.short	0xf806
    1c32:	5e          	.byte	0x5e
    1c33:	00          	.byte	0x00
    1c34:	78aa      	ldrb	r2, [r5, #2]
    1c36:	2a00      	cmp	r2, #0
    1c38:	d105      	bne.n	1c46 <usbdc_cb_ctl_req+0x5a>
    1c3a:	4ba1      	ldr	r3, [pc, #644]	; (1ec0 <usbdc_cb_ctl_req+0x2d4>)
    1c3c:	4798      	blx	r3
    1c3e:	2200      	movs	r2, #0
    1c40:	2301      	movs	r3, #1
    1c42:	0011      	movs	r1, r2
    1c44:	e0cb      	b.n	1dde <usbdc_cb_ctl_req+0x1f2>
    1c46:	4d9f      	ldr	r5, [pc, #636]	; (1ec4 <usbdc_cb_ctl_req+0x2d8>)
    1c48:	682b      	ldr	r3, [r5, #0]
    1c4a:	cb03      	ldmia	r3!, {r0, r1}
    1c4c:	4b9e      	ldr	r3, [pc, #632]	; (1ec8 <usbdc_cb_ctl_req+0x2dc>)
    1c4e:	4798      	blx	r3
    1c50:	1e02      	subs	r2, r0, #0
    1c52:	d100      	bne.n	1c56 <usbdc_cb_ctl_req+0x6a>
    1c54:	e12f      	b.n	1eb6 <usbdc_cb_ctl_req+0x2ca>
    1c56:	78c3      	ldrb	r3, [r0, #3]
    1c58:	7881      	ldrb	r1, [r0, #2]
    1c5a:	021b      	lsls	r3, r3, #8
    1c5c:	18c9      	adds	r1, r1, r3
    1c5e:	b289      	uxth	r1, r1
    1c60:	1841      	adds	r1, r0, r1
    1c62:	4b9a      	ldr	r3, [pc, #616]	; (1ecc <usbdc_cb_ctl_req+0x2e0>)
    1c64:	2204      	movs	r2, #4
    1c66:	9101      	str	r1, [sp, #4]
    1c68:	4798      	blx	r3
    1c6a:	23ff      	movs	r3, #255	; 0xff
    1c6c:	9000      	str	r0, [sp, #0]
    1c6e:	9a00      	ldr	r2, [sp, #0]
    1c70:	2a00      	cmp	r2, #0
    1c72:	d0e4      	beq.n	1c3e <usbdc_cb_ctl_req+0x52>
    1c74:	7896      	ldrb	r6, [r2, #2]
    1c76:	429e      	cmp	r6, r3
    1c78:	d016      	beq.n	1ca8 <usbdc_cb_ctl_req+0xbc>
    1c7a:	692f      	ldr	r7, [r5, #16]
    1c7c:	2f00      	cmp	r7, #0
    1c7e:	d10a      	bne.n	1c96 <usbdc_cb_ctl_req+0xaa>
    1c80:	9800      	ldr	r0, [sp, #0]
    1c82:	2204      	movs	r2, #4
    1c84:	7803      	ldrb	r3, [r0, #0]
    1c86:	9901      	ldr	r1, [sp, #4]
    1c88:	18c0      	adds	r0, r0, r3
    1c8a:	4b90      	ldr	r3, [pc, #576]	; (1ecc <usbdc_cb_ctl_req+0x2e0>)
    1c8c:	9000      	str	r0, [sp, #0]
    1c8e:	4798      	blx	r3
    1c90:	0033      	movs	r3, r6
    1c92:	9000      	str	r0, [sp, #0]
    1c94:	e7eb      	b.n	1c6e <usbdc_cb_ctl_req+0x82>
    1c96:	466a      	mov	r2, sp
    1c98:	2100      	movs	r1, #0
    1c9a:	0038      	movs	r0, r7
    1c9c:	687b      	ldr	r3, [r7, #4]
    1c9e:	4798      	blx	r3
    1ca0:	2800      	cmp	r0, #0
    1ca2:	d0ed      	beq.n	1c80 <usbdc_cb_ctl_req+0x94>
    1ca4:	683f      	ldr	r7, [r7, #0]
    1ca6:	e7e9      	b.n	1c7c <usbdc_cb_ctl_req+0x90>
    1ca8:	001e      	movs	r6, r3
    1caa:	e7e9      	b.n	1c80 <usbdc_cb_ctl_req+0x94>
    1cac:	2902      	cmp	r1, #2
    1cae:	d1b3      	bne.n	1c18 <usbdc_cb_ctl_req+0x2c>
    1cb0:	79ee      	ldrb	r6, [r5, #7]
    1cb2:	79ab      	ldrb	r3, [r5, #6]
    1cb4:	0236      	lsls	r6, r6, #8
    1cb6:	431e      	orrs	r6, r3
    1cb8:	d1ae      	bne.n	1c18 <usbdc_cb_ctl_req+0x2c>
    1cba:	0031      	movs	r1, r6
    1cbc:	7928      	ldrb	r0, [r5, #4]
    1cbe:	4b84      	ldr	r3, [pc, #528]	; (1ed0 <usbdc_cb_ctl_req+0x2e4>)
    1cc0:	4798      	blx	r3
    1cc2:	2301      	movs	r3, #1
    1cc4:	0032      	movs	r2, r6
    1cc6:	0031      	movs	r1, r6
    1cc8:	0020      	movs	r0, r4
    1cca:	4c82      	ldr	r4, [pc, #520]	; (1ed4 <usbdc_cb_ctl_req+0x2e8>)
    1ccc:	47a0      	blx	r4
    1cce:	e0f1      	b.n	1eb4 <usbdc_cb_ctl_req+0x2c8>
    1cd0:	2902      	cmp	r1, #2
    1cd2:	d1a1      	bne.n	1c18 <usbdc_cb_ctl_req+0x2c>
    1cd4:	79eb      	ldrb	r3, [r5, #7]
    1cd6:	79ae      	ldrb	r6, [r5, #6]
    1cd8:	021b      	lsls	r3, r3, #8
    1cda:	431e      	orrs	r6, r3
    1cdc:	d19c      	bne.n	1c18 <usbdc_cb_ctl_req+0x2c>
    1cde:	7928      	ldrb	r0, [r5, #4]
    1ce0:	3901      	subs	r1, #1
    1ce2:	e7ec      	b.n	1cbe <usbdc_cb_ctl_req+0xd2>
    1ce4:	78ec      	ldrb	r4, [r5, #3]
    1ce6:	78ab      	ldrb	r3, [r5, #2]
    1ce8:	0224      	lsls	r4, r4, #8
    1cea:	431c      	orrs	r4, r3
    1cec:	792b      	ldrb	r3, [r5, #4]
    1cee:	796d      	ldrb	r5, [r5, #5]
    1cf0:	4e74      	ldr	r6, [pc, #464]	; (1ec4 <usbdc_cb_ctl_req+0x2d8>)
    1cf2:	022d      	lsls	r5, r5, #8
    1cf4:	431d      	orrs	r5, r3
    1cf6:	6833      	ldr	r3, [r6, #0]
    1cf8:	7ef2      	ldrb	r2, [r6, #27]
    1cfa:	cb03      	ldmia	r3!, {r0, r1}
    1cfc:	4b72      	ldr	r3, [pc, #456]	; (1ec8 <usbdc_cb_ctl_req+0x2dc>)
    1cfe:	4798      	blx	r3
    1d00:	2800      	cmp	r0, #0
    1d02:	d089      	beq.n	1c18 <usbdc_cb_ctl_req+0x2c>
    1d04:	2204      	movs	r2, #4
    1d06:	9000      	str	r0, [sp, #0]
    1d08:	78c3      	ldrb	r3, [r0, #3]
    1d0a:	7881      	ldrb	r1, [r0, #2]
    1d0c:	021b      	lsls	r3, r3, #8
    1d0e:	18c9      	adds	r1, r1, r3
    1d10:	b289      	uxth	r1, r1
    1d12:	1841      	adds	r1, r0, r1
    1d14:	4f6d      	ldr	r7, [pc, #436]	; (1ecc <usbdc_cb_ctl_req+0x2e0>)
    1d16:	9101      	str	r1, [sp, #4]
    1d18:	47b8      	blx	r7
    1d1a:	2800      	cmp	r0, #0
    1d1c:	d100      	bne.n	1d20 <usbdc_cb_ctl_req+0x134>
    1d1e:	e77b      	b.n	1c18 <usbdc_cb_ctl_req+0x2c>
    1d20:	7883      	ldrb	r3, [r0, #2]
    1d22:	42ab      	cmp	r3, r5
    1d24:	d110      	bne.n	1d48 <usbdc_cb_ctl_req+0x15c>
    1d26:	78c3      	ldrb	r3, [r0, #3]
    1d28:	42a3      	cmp	r3, r4
    1d2a:	d10d      	bne.n	1d48 <usbdc_cb_ctl_req+0x15c>
    1d2c:	6937      	ldr	r7, [r6, #16]
    1d2e:	9000      	str	r0, [sp, #0]
    1d30:	2f00      	cmp	r7, #0
    1d32:	d100      	bne.n	1d36 <usbdc_cb_ctl_req+0x14a>
    1d34:	e770      	b.n	1c18 <usbdc_cb_ctl_req+0x2c>
    1d36:	2101      	movs	r1, #1
    1d38:	466a      	mov	r2, sp
    1d3a:	0038      	movs	r0, r7
    1d3c:	687b      	ldr	r3, [r7, #4]
    1d3e:	4798      	blx	r3
    1d40:	1e01      	subs	r1, r0, #0
    1d42:	d008      	beq.n	1d56 <usbdc_cb_ctl_req+0x16a>
    1d44:	683f      	ldr	r7, [r7, #0]
    1d46:	e7f3      	b.n	1d30 <usbdc_cb_ctl_req+0x144>
    1d48:	9800      	ldr	r0, [sp, #0]
    1d4a:	2204      	movs	r2, #4
    1d4c:	7803      	ldrb	r3, [r0, #0]
    1d4e:	9901      	ldr	r1, [sp, #4]
    1d50:	18c0      	adds	r0, r0, r3
    1d52:	9000      	str	r0, [sp, #0]
    1d54:	e7e0      	b.n	1d18 <usbdc_cb_ctl_req+0x12c>
    1d56:	687b      	ldr	r3, [r7, #4]
    1d58:	466a      	mov	r2, sp
    1d5a:	0038      	movs	r0, r7
    1d5c:	4798      	blx	r3
    1d5e:	2800      	cmp	r0, #0
    1d60:	d000      	beq.n	1d64 <usbdc_cb_ctl_req+0x178>
    1d62:	e759      	b.n	1c18 <usbdc_cb_ctl_req+0x2c>
    1d64:	2c00      	cmp	r4, #0
    1d66:	d004      	beq.n	1d72 <usbdc_cb_ctl_req+0x186>
    1d68:	2201      	movs	r2, #1
    1d6a:	40aa      	lsls	r2, r5
    1d6c:	7f73      	ldrb	r3, [r6, #29]
    1d6e:	4313      	orrs	r3, r2
    1d70:	7773      	strb	r3, [r6, #29]
    1d72:	2300      	movs	r3, #0
    1d74:	001a      	movs	r2, r3
    1d76:	0019      	movs	r1, r3
    1d78:	0018      	movs	r0, r3
    1d7a:	e7a6      	b.n	1cca <usbdc_cb_ctl_req+0xde>
    1d7c:	7868      	ldrb	r0, [r5, #1]
    1d7e:	280a      	cmp	r0, #10
    1d80:	d900      	bls.n	1d84 <usbdc_cb_ctl_req+0x198>
    1d82:	e749      	b.n	1c18 <usbdc_cb_ctl_req+0x2c>
    1d84:	f000 fd3a 	bl	27fc <__gnu_thumb1_case_shi>
    1d88:	ff480068 	.word	0xff480068
    1d8c:	ff48ff48 	.word	0xff48ff48
    1d90:	ff48ff48 	.word	0xff48ff48
    1d94:	ff48000b 	.word	0xff48000b
    1d98:	ff480060 	.word	0xff480060
    1d9c:	0085      	.short	0x0085
    1d9e:	78e9      	ldrb	r1, [r5, #3]
    1da0:	78aa      	ldrb	r2, [r5, #2]
    1da2:	0209      	lsls	r1, r1, #8
    1da4:	4311      	orrs	r1, r2
    1da6:	0a0b      	lsrs	r3, r1, #8
    1da8:	2b02      	cmp	r3, #2
    1daa:	d01f      	beq.n	1dec <usbdc_cb_ctl_req+0x200>
    1dac:	2b03      	cmp	r3, #3
    1dae:	d03b      	beq.n	1e28 <usbdc_cb_ctl_req+0x23c>
    1db0:	2b01      	cmp	r3, #1
    1db2:	d000      	beq.n	1db6 <usbdc_cb_ctl_req+0x1ca>
    1db4:	e730      	b.n	1c18 <usbdc_cb_ctl_req+0x2c>
    1db6:	79eb      	ldrb	r3, [r5, #7]
    1db8:	79aa      	ldrb	r2, [r5, #6]
    1dba:	021b      	lsls	r3, r3, #8
    1dbc:	4313      	orrs	r3, r2
    1dbe:	1c1d      	adds	r5, r3, #0
    1dc0:	2b12      	cmp	r3, #18
    1dc2:	d900      	bls.n	1dc6 <usbdc_cb_ctl_req+0x1da>
    1dc4:	2512      	movs	r5, #18
    1dc6:	4b3f      	ldr	r3, [pc, #252]	; (1ec4 <usbdc_cb_ctl_req+0x2d8>)
    1dc8:	2201      	movs	r2, #1
    1dca:	681b      	ldr	r3, [r3, #0]
    1dcc:	b2ad      	uxth	r5, r5
    1dce:	cb03      	ldmia	r3!, {r0, r1}
    1dd0:	4b3e      	ldr	r3, [pc, #248]	; (1ecc <usbdc_cb_ctl_req+0x2e0>)
    1dd2:	4798      	blx	r3
    1dd4:	2300      	movs	r3, #0
    1dd6:	1e01      	subs	r1, r0, #0
    1dd8:	d100      	bne.n	1ddc <usbdc_cb_ctl_req+0x1f0>
    1dda:	e71d      	b.n	1c18 <usbdc_cb_ctl_req+0x2c>
    1ddc:	002a      	movs	r2, r5
    1dde:	0020      	movs	r0, r4
    1de0:	4c3c      	ldr	r4, [pc, #240]	; (1ed4 <usbdc_cb_ctl_req+0x2e8>)
    1de2:	47a0      	blx	r4
    1de4:	4242      	negs	r2, r0
    1de6:	4142      	adcs	r2, r0
    1de8:	b2d2      	uxtb	r2, r2
    1dea:	e064      	b.n	1eb6 <usbdc_cb_ctl_req+0x2ca>
    1dec:	79ab      	ldrb	r3, [r5, #6]
    1dee:	79ed      	ldrb	r5, [r5, #7]
    1df0:	3101      	adds	r1, #1
    1df2:	022d      	lsls	r5, r5, #8
    1df4:	431d      	orrs	r5, r3
    1df6:	4b33      	ldr	r3, [pc, #204]	; (1ec4 <usbdc_cb_ctl_req+0x2d8>)
    1df8:	b2ca      	uxtb	r2, r1
    1dfa:	7f1e      	ldrb	r6, [r3, #28]
    1dfc:	681b      	ldr	r3, [r3, #0]
    1dfe:	cb03      	ldmia	r3!, {r0, r1}
    1e00:	4b31      	ldr	r3, [pc, #196]	; (1ec8 <usbdc_cb_ctl_req+0x2dc>)
    1e02:	4798      	blx	r3
    1e04:	1e01      	subs	r1, r0, #0
    1e06:	d100      	bne.n	1e0a <usbdc_cb_ctl_req+0x21e>
    1e08:	e706      	b.n	1c18 <usbdc_cb_ctl_req+0x2c>
    1e0a:	78c3      	ldrb	r3, [r0, #3]
    1e0c:	7882      	ldrb	r2, [r0, #2]
    1e0e:	021b      	lsls	r3, r3, #8
    1e10:	18d2      	adds	r2, r2, r3
    1e12:	b292      	uxth	r2, r2
    1e14:	2300      	movs	r3, #0
    1e16:	4295      	cmp	r5, r2
    1e18:	d9e0      	bls.n	1ddc <usbdc_cb_ctl_req+0x1f0>
    1e1a:	3e01      	subs	r6, #1
    1e1c:	4035      	ands	r5, r6
    1e1e:	426b      	negs	r3, r5
    1e20:	416b      	adcs	r3, r5
    1e22:	0015      	movs	r5, r2
    1e24:	b2db      	uxtb	r3, r3
    1e26:	e7d9      	b.n	1ddc <usbdc_cb_ctl_req+0x1f0>
    1e28:	79ab      	ldrb	r3, [r5, #6]
    1e2a:	79ed      	ldrb	r5, [r5, #7]
    1e2c:	b2ca      	uxtb	r2, r1
    1e2e:	022d      	lsls	r5, r5, #8
    1e30:	431d      	orrs	r5, r3
    1e32:	4b24      	ldr	r3, [pc, #144]	; (1ec4 <usbdc_cb_ctl_req+0x2d8>)
    1e34:	7f1e      	ldrb	r6, [r3, #28]
    1e36:	681b      	ldr	r3, [r3, #0]
    1e38:	cb03      	ldmia	r3!, {r0, r1}
    1e3a:	4b27      	ldr	r3, [pc, #156]	; (1ed8 <usbdc_cb_ctl_req+0x2ec>)
    1e3c:	4798      	blx	r3
    1e3e:	1e01      	subs	r1, r0, #0
    1e40:	d100      	bne.n	1e44 <usbdc_cb_ctl_req+0x258>
    1e42:	e6e9      	b.n	1c18 <usbdc_cb_ctl_req+0x2c>
    1e44:	7802      	ldrb	r2, [r0, #0]
    1e46:	e7e5      	b.n	1e14 <usbdc_cb_ctl_req+0x228>
    1e48:	491e      	ldr	r1, [pc, #120]	; (1ec4 <usbdc_cb_ctl_req+0x2d8>)
    1e4a:	7ecb      	ldrb	r3, [r1, #27]
    1e4c:	694a      	ldr	r2, [r1, #20]
    1e4e:	7013      	strb	r3, [r2, #0]
    1e50:	6949      	ldr	r1, [r1, #20]
    1e52:	2300      	movs	r3, #0
    1e54:	2201      	movs	r2, #1
    1e56:	e737      	b.n	1cc8 <usbdc_cb_ctl_req+0xdc>
    1e58:	231f      	movs	r3, #31
    1e5a:	4019      	ands	r1, r3
    1e5c:	2901      	cmp	r1, #1
    1e5e:	d90c      	bls.n	1e7a <usbdc_cb_ctl_req+0x28e>
    1e60:	2902      	cmp	r1, #2
    1e62:	d000      	beq.n	1e66 <usbdc_cb_ctl_req+0x27a>
    1e64:	e6d8      	b.n	1c18 <usbdc_cb_ctl_req+0x2c>
    1e66:	7928      	ldrb	r0, [r5, #4]
    1e68:	4b19      	ldr	r3, [pc, #100]	; (1ed0 <usbdc_cb_ctl_req+0x2e4>)
    1e6a:	4798      	blx	r3
    1e6c:	2200      	movs	r2, #0
    1e6e:	4290      	cmp	r0, r2
    1e70:	db21      	blt.n	1eb6 <usbdc_cb_ctl_req+0x2ca>
    1e72:	2301      	movs	r3, #1
    1e74:	4018      	ands	r0, r3
    1e76:	9000      	str	r0, [sp, #0]
    1e78:	e001      	b.n	1e7e <usbdc_cb_ctl_req+0x292>
    1e7a:	2300      	movs	r3, #0
    1e7c:	9300      	str	r3, [sp, #0]
    1e7e:	4d11      	ldr	r5, [pc, #68]	; (1ec4 <usbdc_cb_ctl_req+0x2d8>)
    1e80:	2202      	movs	r2, #2
    1e82:	4669      	mov	r1, sp
    1e84:	4b15      	ldr	r3, [pc, #84]	; (1edc <usbdc_cb_ctl_req+0x2f0>)
    1e86:	6968      	ldr	r0, [r5, #20]
    1e88:	4798      	blx	r3
    1e8a:	2300      	movs	r3, #0
    1e8c:	2202      	movs	r2, #2
    1e8e:	6969      	ldr	r1, [r5, #20]
    1e90:	e71a      	b.n	1cc8 <usbdc_cb_ctl_req+0xdc>
    1e92:	4e0c      	ldr	r6, [pc, #48]	; (1ec4 <usbdc_cb_ctl_req+0x2d8>)
    1e94:	796b      	ldrb	r3, [r5, #5]
    1e96:	792a      	ldrb	r2, [r5, #4]
    1e98:	7f70      	ldrb	r0, [r6, #29]
    1e9a:	021b      	lsls	r3, r3, #8
    1e9c:	4313      	orrs	r3, r2
    1e9e:	4118      	asrs	r0, r3
    1ea0:	2401      	movs	r4, #1
    1ea2:	4020      	ands	r0, r4
    1ea4:	d12e      	bne.n	1f04 <usbdc_cb_ctl_req+0x318>
    1ea6:	6973      	ldr	r3, [r6, #20]
    1ea8:	0022      	movs	r2, r4
    1eaa:	7018      	strb	r0, [r3, #0]
    1eac:	6971      	ldr	r1, [r6, #20]
    1eae:	0003      	movs	r3, r0
    1eb0:	4d08      	ldr	r5, [pc, #32]	; (1ed4 <usbdc_cb_ctl_req+0x2e8>)
    1eb2:	47a8      	blx	r5
    1eb4:	2201      	movs	r2, #1
    1eb6:	0010      	movs	r0, r2
    1eb8:	bdfe      	pop	{r1, r2, r3, r4, r5, r6, r7, pc}
    1eba:	46c0      	nop			; (mov r8, r8)
    1ebc:	00001a91 	.word	0x00001a91
    1ec0:	00001a4d 	.word	0x00001a4d
    1ec4:	20000594 	.word	0x20000594
    1ec8:	00002021 	.word	0x00002021
    1ecc:	00001fe9 	.word	0x00001fe9
    1ed0:	00000755 	.word	0x00000755
    1ed4:	00001bd1 	.word	0x00001bd1
    1ed8:	0000205d 	.word	0x0000205d
    1edc:	000029c5 	.word	0x000029c5
    1ee0:	002a      	movs	r2, r5
    1ee2:	2102      	movs	r1, #2
    1ee4:	0020      	movs	r0, r4
    1ee6:	6863      	ldr	r3, [r4, #4]
    1ee8:	4798      	blx	r3
    1eea:	2800      	cmp	r0, #0
    1eec:	da03      	bge.n	1ef6 <usbdc_cb_ctl_req+0x30a>
    1eee:	6824      	ldr	r4, [r4, #0]
    1ef0:	2c00      	cmp	r4, #0
    1ef2:	d1f5      	bne.n	1ee0 <usbdc_cb_ctl_req+0x2f4>
    1ef4:	e690      	b.n	1c18 <usbdc_cb_ctl_req+0x2c>
    1ef6:	6973      	ldr	r3, [r6, #20]
    1ef8:	2201      	movs	r2, #1
    1efa:	7018      	strb	r0, [r3, #0]
    1efc:	2300      	movs	r3, #0
    1efe:	6971      	ldr	r1, [r6, #20]
    1f00:	0018      	movs	r0, r3
    1f02:	e6e2      	b.n	1cca <usbdc_cb_ctl_req+0xde>
    1f04:	6934      	ldr	r4, [r6, #16]
    1f06:	e7f3      	b.n	1ef0 <usbdc_cb_ctl_req+0x304>

00001f08 <usbdc_register_handler>:
    1f08:	b510      	push	{r4, lr}
    1f0a:	2801      	cmp	r0, #1
    1f0c:	d009      	beq.n	1f22 <usbdc_register_handler+0x1a>
    1f0e:	2800      	cmp	r0, #0
    1f10:	d002      	beq.n	1f18 <usbdc_register_handler+0x10>
    1f12:	2802      	cmp	r0, #2
    1f14:	d008      	beq.n	1f28 <usbdc_register_handler+0x20>
    1f16:	bd10      	pop	{r4, pc}
    1f18:	4805      	ldr	r0, [pc, #20]	; (1f30 <usbdc_register_handler+0x28>)
    1f1a:	3004      	adds	r0, #4
    1f1c:	4b05      	ldr	r3, [pc, #20]	; (1f34 <usbdc_register_handler+0x2c>)
    1f1e:	4798      	blx	r3
    1f20:	e7f9      	b.n	1f16 <usbdc_register_handler+0xe>
    1f22:	4803      	ldr	r0, [pc, #12]	; (1f30 <usbdc_register_handler+0x28>)
    1f24:	3008      	adds	r0, #8
    1f26:	e7f9      	b.n	1f1c <usbdc_register_handler+0x14>
    1f28:	4801      	ldr	r0, [pc, #4]	; (1f30 <usbdc_register_handler+0x28>)
    1f2a:	300c      	adds	r0, #12
    1f2c:	e7f6      	b.n	1f1c <usbdc_register_handler+0x14>
    1f2e:	46c0      	nop			; (mov r8, r8)
    1f30:	20000594 	.word	0x20000594
    1f34:	00000801 	.word	0x00000801

00001f38 <usbdc_init>:
    1f38:	b570      	push	{r4, r5, r6, lr}
    1f3a:	4b0a      	ldr	r3, [pc, #40]	; (1f64 <usbdc_init+0x2c>)
    1f3c:	0005      	movs	r5, r0
    1f3e:	4798      	blx	r3
    1f40:	2800      	cmp	r0, #0
    1f42:	db0e      	blt.n	1f62 <usbdc_init+0x2a>
    1f44:	4c08      	ldr	r4, [pc, #32]	; (1f68 <usbdc_init+0x30>)
    1f46:	2220      	movs	r2, #32
    1f48:	4b08      	ldr	r3, [pc, #32]	; (1f6c <usbdc_init+0x34>)
    1f4a:	2100      	movs	r1, #0
    1f4c:	0020      	movs	r0, r4
    1f4e:	4798      	blx	r3
    1f50:	6165      	str	r5, [r4, #20]
    1f52:	4907      	ldr	r1, [pc, #28]	; (1f70 <usbdc_init+0x38>)
    1f54:	2000      	movs	r0, #0
    1f56:	4c07      	ldr	r4, [pc, #28]	; (1f74 <usbdc_init+0x3c>)
    1f58:	47a0      	blx	r4
    1f5a:	2001      	movs	r0, #1
    1f5c:	4906      	ldr	r1, [pc, #24]	; (1f78 <usbdc_init+0x40>)
    1f5e:	47a0      	blx	r4
    1f60:	2000      	movs	r0, #0
    1f62:	bd70      	pop	{r4, r5, r6, pc}
    1f64:	000004f1 	.word	0x000004f1
    1f68:	20000594 	.word	0x20000594
    1f6c:	000029d7 	.word	0x000029d7
    1f70:	00001acd 	.word	0x00001acd
    1f74:	0000055d 	.word	0x0000055d
    1f78:	00001bb1 	.word	0x00001bb1

00001f7c <usbdc_register_function>:
    1f7c:	b510      	push	{r4, lr}
    1f7e:	0001      	movs	r1, r0
    1f80:	4802      	ldr	r0, [pc, #8]	; (1f8c <usbdc_register_function+0x10>)
    1f82:	4b03      	ldr	r3, [pc, #12]	; (1f90 <usbdc_register_function+0x14>)
    1f84:	3010      	adds	r0, #16
    1f86:	4798      	blx	r3
    1f88:	bd10      	pop	{r4, pc}
    1f8a:	46c0      	nop			; (mov r8, r8)
    1f8c:	20000594 	.word	0x20000594
    1f90:	00000801 	.word	0x00000801

00001f94 <usbdc_start>:
    1f94:	b510      	push	{r4, lr}
    1f96:	4b0a      	ldr	r3, [pc, #40]	; (1fc0 <usbdc_start+0x2c>)
    1f98:	7e9c      	ldrb	r4, [r3, #26]
    1f9a:	2c00      	cmp	r4, #0
    1f9c:	d10b      	bne.n	1fb6 <usbdc_start+0x22>
    1f9e:	2800      	cmp	r0, #0
    1fa0:	d00c      	beq.n	1fbc <usbdc_start+0x28>
    1fa2:	6802      	ldr	r2, [r0, #0]
    1fa4:	6018      	str	r0, [r3, #0]
    1fa6:	79d2      	ldrb	r2, [r2, #7]
    1fa8:	771a      	strb	r2, [r3, #28]
    1faa:	2201      	movs	r2, #1
    1fac:	769a      	strb	r2, [r3, #26]
    1fae:	4b05      	ldr	r3, [pc, #20]	; (1fc4 <usbdc_start+0x30>)
    1fb0:	4798      	blx	r3
    1fb2:	0020      	movs	r0, r4
    1fb4:	bd10      	pop	{r4, pc}
    1fb6:	2004      	movs	r0, #4
    1fb8:	4240      	negs	r0, r0
    1fba:	e7fb      	b.n	1fb4 <usbdc_start+0x20>
    1fbc:	2009      	movs	r0, #9
    1fbe:	e7fb      	b.n	1fb8 <usbdc_start+0x24>
    1fc0:	20000594 	.word	0x20000594
    1fc4:	00000569 	.word	0x00000569

00001fc8 <usbdc_attach>:
    1fc8:	b510      	push	{r4, lr}
    1fca:	4b01      	ldr	r3, [pc, #4]	; (1fd0 <usbdc_attach+0x8>)
    1fcc:	4798      	blx	r3
    1fce:	bd10      	pop	{r4, pc}
    1fd0:	00000575 	.word	0x00000575

00001fd4 <usbdc_get_state>:
    1fd4:	4b03      	ldr	r3, [pc, #12]	; (1fe4 <usbdc_get_state+0x10>)
    1fd6:	7e98      	ldrb	r0, [r3, #26]
    1fd8:	2310      	movs	r3, #16
    1fda:	4218      	tst	r0, r3
    1fdc:	d000      	beq.n	1fe0 <usbdc_get_state+0xc>
    1fde:	0018      	movs	r0, r3
    1fe0:	4770      	bx	lr
    1fe2:	46c0      	nop			; (mov r8, r8)
    1fe4:	20000594 	.word	0x20000594

00001fe8 <usb_find_desc>:
    1fe8:	b510      	push	{r4, lr}
    1fea:	4288      	cmp	r0, r1
    1fec:	d301      	bcc.n	1ff2 <usb_find_desc+0xa>
    1fee:	2000      	movs	r0, #0
    1ff0:	bd10      	pop	{r4, pc}
    1ff2:	7803      	ldrb	r3, [r0, #0]
    1ff4:	2b01      	cmp	r3, #1
    1ff6:	d9fa      	bls.n	1fee <usb_find_desc+0x6>
    1ff8:	7844      	ldrb	r4, [r0, #1]
    1ffa:	4294      	cmp	r4, r2
    1ffc:	d0f8      	beq.n	1ff0 <usb_find_desc+0x8>
    1ffe:	18c0      	adds	r0, r0, r3
    2000:	e7f3      	b.n	1fea <usb_find_desc+0x2>

00002002 <usb_find_ep_desc>:
    2002:	4288      	cmp	r0, r1
    2004:	d301      	bcc.n	200a <usb_find_ep_desc+0x8>
    2006:	2000      	movs	r0, #0
    2008:	4770      	bx	lr
    200a:	7803      	ldrb	r3, [r0, #0]
    200c:	2b01      	cmp	r3, #1
    200e:	d9fa      	bls.n	2006 <usb_find_ep_desc+0x4>
    2010:	7842      	ldrb	r2, [r0, #1]
    2012:	2a04      	cmp	r2, #4
    2014:	d0f7      	beq.n	2006 <usb_find_ep_desc+0x4>
    2016:	2a05      	cmp	r2, #5
    2018:	d0f6      	beq.n	2008 <usb_find_ep_desc+0x6>
    201a:	18c0      	adds	r0, r0, r3
    201c:	e7f1      	b.n	2002 <usb_find_ep_desc>
	...

00002020 <usb_find_cfg_desc>:
    2020:	b570      	push	{r4, r5, r6, lr}
    2022:	4b0d      	ldr	r3, [pc, #52]	; (2058 <usb_find_cfg_desc+0x38>)
    2024:	0015      	movs	r5, r2
    2026:	2202      	movs	r2, #2
    2028:	000c      	movs	r4, r1
    202a:	4798      	blx	r3
    202c:	2800      	cmp	r0, #0
    202e:	d10f      	bne.n	2050 <usb_find_cfg_desc+0x30>
    2030:	bd70      	pop	{r4, r5, r6, pc}
    2032:	7803      	ldrb	r3, [r0, #0]
    2034:	2b01      	cmp	r3, #1
    2036:	d90d      	bls.n	2054 <usb_find_cfg_desc+0x34>
    2038:	7843      	ldrb	r3, [r0, #1]
    203a:	2b02      	cmp	r3, #2
    203c:	d10a      	bne.n	2054 <usb_find_cfg_desc+0x34>
    203e:	7943      	ldrb	r3, [r0, #5]
    2040:	42ab      	cmp	r3, r5
    2042:	d0f5      	beq.n	2030 <usb_find_cfg_desc+0x10>
    2044:	78c2      	ldrb	r2, [r0, #3]
    2046:	7883      	ldrb	r3, [r0, #2]
    2048:	0212      	lsls	r2, r2, #8
    204a:	189b      	adds	r3, r3, r2
    204c:	b29b      	uxth	r3, r3
    204e:	18c0      	adds	r0, r0, r3
    2050:	42a0      	cmp	r0, r4
    2052:	d3ee      	bcc.n	2032 <usb_find_cfg_desc+0x12>
    2054:	2000      	movs	r0, #0
    2056:	e7eb      	b.n	2030 <usb_find_cfg_desc+0x10>
    2058:	00001fe9 	.word	0x00001fe9

0000205c <usb_find_str_desc>:
    205c:	b570      	push	{r4, r5, r6, lr}
    205e:	000d      	movs	r5, r1
    2060:	0016      	movs	r6, r2
    2062:	2400      	movs	r4, #0
    2064:	42a8      	cmp	r0, r5
    2066:	d301      	bcc.n	206c <usb_find_str_desc+0x10>
    2068:	2000      	movs	r0, #0
    206a:	bd70      	pop	{r4, r5, r6, pc}
    206c:	2203      	movs	r2, #3
    206e:	0029      	movs	r1, r5
    2070:	4b05      	ldr	r3, [pc, #20]	; (2088 <usb_find_str_desc+0x2c>)
    2072:	4798      	blx	r3
    2074:	2800      	cmp	r0, #0
    2076:	d0f8      	beq.n	206a <usb_find_str_desc+0xe>
    2078:	7803      	ldrb	r3, [r0, #0]
    207a:	2b01      	cmp	r3, #1
    207c:	d9f4      	bls.n	2068 <usb_find_str_desc+0xc>
    207e:	42b4      	cmp	r4, r6
    2080:	d0f3      	beq.n	206a <usb_find_str_desc+0xe>
    2082:	18c0      	adds	r0, r0, r3
    2084:	3401      	adds	r4, #1
    2086:	e7ed      	b.n	2064 <usb_find_str_desc+0x8>
    2088:	00001fe9 	.word	0x00001fe9

0000208c <usbd_sof_event>:
    208c:	b570      	push	{r4, r5, r6, lr}
    208e:	4b15      	ldr	r3, [pc, #84]	; (20e4 <usbd_sof_event+0x58>)
    2090:	4c15      	ldr	r4, [pc, #84]	; (20e8 <usbd_sof_event+0x5c>)
    2092:	781a      	ldrb	r2, [r3, #0]
    2094:	2a1e      	cmp	r2, #30
    2096:	d807      	bhi.n	20a8 <usbd_sof_event+0x1c>
    2098:	3201      	adds	r2, #1
    209a:	701a      	strb	r2, [r3, #0]
    209c:	8963      	ldrh	r3, [r4, #10]
    209e:	2b00      	cmp	r3, #0
    20a0:	d001      	beq.n	20a6 <usbd_sof_event+0x1a>
    20a2:	3b01      	subs	r3, #1
    20a4:	8163      	strh	r3, [r4, #10]
    20a6:	bd70      	pop	{r4, r5, r6, pc}
    20a8:	2200      	movs	r2, #0
    20aa:	7821      	ldrb	r1, [r4, #0]
    20ac:	701a      	strb	r2, [r3, #0]
    20ae:	4291      	cmp	r1, r2
    20b0:	d10b      	bne.n	20ca <usbd_sof_event+0x3e>
    20b2:	23c0      	movs	r3, #192	; 0xc0
    20b4:	3210      	adds	r2, #16
    20b6:	05db      	lsls	r3, r3, #23
    20b8:	619a      	str	r2, [r3, #24]
    20ba:	2301      	movs	r3, #1
    20bc:	7261      	strb	r1, [r4, #9]
    20be:	7023      	strb	r3, [r4, #0]
    20c0:	1c60      	adds	r0, r4, #1
    20c2:	2103      	movs	r1, #3
    20c4:	4b09      	ldr	r3, [pc, #36]	; (20ec <usbd_sof_event+0x60>)
    20c6:	4798      	blx	r3
    20c8:	e7e8      	b.n	209c <usbd_sof_event+0x10>
    20ca:	7858      	ldrb	r0, [r3, #1]
    20cc:	2800      	cmp	r0, #0
    20ce:	d0f7      	beq.n	20c0 <usbd_sof_event+0x34>
    20d0:	21c0      	movs	r1, #192	; 0xc0
    20d2:	2510      	movs	r5, #16
    20d4:	05c9      	lsls	r1, r1, #23
    20d6:	614d      	str	r5, [r1, #20]
    20d8:	71e0      	strb	r0, [r4, #7]
    20da:	2001      	movs	r0, #1
    20dc:	705a      	strb	r2, [r3, #1]
    20de:	7260      	strb	r0, [r4, #9]
    20e0:	7022      	strb	r2, [r4, #0]
    20e2:	e7ed      	b.n	20c0 <usbd_sof_event+0x34>
    20e4:	200005b4 	.word	0x200005b4
    20e8:	20000008 	.word	0x20000008
    20ec:	000019b5 	.word	0x000019b5

000020f0 <_gpio_get_level.constprop.5>:
    20f0:	b513      	push	{r0, r1, r4, lr}
    20f2:	4b08      	ldr	r3, [pc, #32]	; (2114 <_gpio_get_level.constprop.5+0x24>)
    20f4:	a801      	add	r0, sp, #4
    20f6:	4798      	blx	r3
    20f8:	23c0      	movs	r3, #192	; 0xc0
    20fa:	4a07      	ldr	r2, [pc, #28]	; (2118 <_gpio_get_level.constprop.5+0x28>)
    20fc:	05db      	lsls	r3, r3, #23
    20fe:	681c      	ldr	r4, [r3, #0]
    2100:	6a12      	ldr	r2, [r2, #32]
    2102:	691b      	ldr	r3, [r3, #16]
    2104:	a801      	add	r0, sp, #4
    2106:	4053      	eors	r3, r2
    2108:	401c      	ands	r4, r3
    210a:	4054      	eors	r4, r2
    210c:	4b03      	ldr	r3, [pc, #12]	; (211c <_gpio_get_level.constprop.5+0x2c>)
    210e:	4798      	blx	r3
    2110:	0020      	movs	r0, r4
    2112:	bd16      	pop	{r1, r2, r4, pc}
    2114:	000002d5 	.word	0x000002d5
    2118:	41004400 	.word	0x41004400
    211c:	000002e3 	.word	0x000002e3

00002120 <sha1_f>:
    2120:	b510      	push	{r4, lr}
    2122:	2813      	cmp	r0, #19
    2124:	d804      	bhi.n	2130 <sha1_f+0x10>
    2126:	405a      	eors	r2, r3
    2128:	0010      	movs	r0, r2
    212a:	4008      	ands	r0, r1
    212c:	4058      	eors	r0, r3
    212e:	bd10      	pop	{r4, pc}
    2130:	2827      	cmp	r0, #39	; 0x27
    2132:	d803      	bhi.n	213c <sha1_f+0x1c>
    2134:	405a      	eors	r2, r3
    2136:	0010      	movs	r0, r2
    2138:	4048      	eors	r0, r1
    213a:	e7f8      	b.n	212e <sha1_f+0xe>
    213c:	283b      	cmp	r0, #59	; 0x3b
    213e:	d806      	bhi.n	214e <sha1_f+0x2e>
    2140:	0010      	movs	r0, r2
    2142:	4318      	orrs	r0, r3
    2144:	4013      	ands	r3, r2
    2146:	4001      	ands	r1, r0
    2148:	0018      	movs	r0, r3
    214a:	4308      	orrs	r0, r1
    214c:	e7ef      	b.n	212e <sha1_f+0xe>
    214e:	284f      	cmp	r0, #79	; 0x4f
    2150:	d9f0      	bls.n	2134 <sha1_f+0x14>
    2152:	2001      	movs	r0, #1
    2154:	4b00      	ldr	r3, [pc, #0]	; (2158 <sha1_f+0x38>)
    2156:	4798      	blx	r3
    2158:	00002929 	.word	0x00002929

0000215c <sha1_K>:
    215c:	2813      	cmp	r0, #19
    215e:	d905      	bls.n	216c <sha1_K+0x10>
    2160:	2827      	cmp	r0, #39	; 0x27
    2162:	d905      	bls.n	2170 <sha1_K+0x14>
    2164:	283b      	cmp	r0, #59	; 0x3b
    2166:	d905      	bls.n	2174 <sha1_K+0x18>
    2168:	4803      	ldr	r0, [pc, #12]	; (2178 <sha1_K+0x1c>)
    216a:	4770      	bx	lr
    216c:	4803      	ldr	r0, [pc, #12]	; (217c <sha1_K+0x20>)
    216e:	e7fc      	b.n	216a <sha1_K+0xe>
    2170:	4803      	ldr	r0, [pc, #12]	; (2180 <sha1_K+0x24>)
    2172:	e7fa      	b.n	216a <sha1_K+0xe>
    2174:	4803      	ldr	r0, [pc, #12]	; (2184 <sha1_K+0x28>)
    2176:	e7f8      	b.n	216a <sha1_K+0xe>
    2178:	ca62c1d6 	.word	0xca62c1d6
    217c:	5a827999 	.word	0x5a827999
    2180:	6ed9eba1 	.word	0x6ed9eba1
    2184:	8f1bbcdc 	.word	0x8f1bbcdc

00002188 <sha1_pad>:
    2188:	b5f7      	push	{r0, r1, r2, r4, r5, r6, r7, lr}
    218a:	0007      	movs	r7, r0
    218c:	000c      	movs	r4, r1
    218e:	9200      	str	r2, [sp, #0]
    2190:	1e06      	subs	r6, r0, #0
    2192:	d030      	beq.n	21f6 <sha1_pad+0x6e>
    2194:	233f      	movs	r3, #63	; 0x3f
    2196:	2540      	movs	r5, #64	; 0x40
    2198:	400b      	ands	r3, r1
    219a:	1aed      	subs	r5, r5, r3
    219c:	2d08      	cmp	r5, #8
    219e:	d801      	bhi.n	21a4 <sha1_pad+0x1c>
    21a0:	2580      	movs	r5, #128	; 0x80
    21a2:	1aed      	subs	r5, r5, r3
    21a4:	192b      	adds	r3, r5, r4
    21a6:	9301      	str	r3, [sp, #4]
    21a8:	0018      	movs	r0, r3
    21aa:	4b14      	ldr	r3, [pc, #80]	; (21fc <sha1_pad+0x74>)
    21ac:	4798      	blx	r3
    21ae:	0022      	movs	r2, r4
    21b0:	0039      	movs	r1, r7
    21b2:	4b13      	ldr	r3, [pc, #76]	; (2200 <sha1_pad+0x78>)
    21b4:	0006      	movs	r6, r0
    21b6:	4798      	blx	r3
    21b8:	2380      	movs	r3, #128	; 0x80
    21ba:	002a      	movs	r2, r5
    21bc:	1c60      	adds	r0, r4, #1
    21be:	5533      	strb	r3, [r6, r4]
    21c0:	3a08      	subs	r2, #8
    21c2:	4b10      	ldr	r3, [pc, #64]	; (2204 <sha1_pad+0x7c>)
    21c4:	1830      	adds	r0, r6, r0
    21c6:	2100      	movs	r1, #0
    21c8:	4798      	blx	r3
    21ca:	2200      	movs	r2, #0
    21cc:	00e3      	lsls	r3, r4, #3
    21ce:	3c08      	subs	r4, #8
    21d0:	1965      	adds	r5, r4, r5
    21d2:	b2ed      	uxtb	r5, r5
    21d4:	5572      	strb	r2, [r6, r5]
    21d6:	1975      	adds	r5, r6, r5
    21d8:	706a      	strb	r2, [r5, #1]
    21da:	70aa      	strb	r2, [r5, #2]
    21dc:	70ea      	strb	r2, [r5, #3]
    21de:	0e1a      	lsrs	r2, r3, #24
    21e0:	712a      	strb	r2, [r5, #4]
    21e2:	0c1a      	lsrs	r2, r3, #16
    21e4:	716a      	strb	r2, [r5, #5]
    21e6:	71eb      	strb	r3, [r5, #7]
    21e8:	0a1a      	lsrs	r2, r3, #8
    21ea:	9b00      	ldr	r3, [sp, #0]
    21ec:	71aa      	strb	r2, [r5, #6]
    21ee:	2b00      	cmp	r3, #0
    21f0:	d001      	beq.n	21f6 <sha1_pad+0x6e>
    21f2:	9a01      	ldr	r2, [sp, #4]
    21f4:	601a      	str	r2, [r3, #0]
    21f6:	0030      	movs	r0, r6
    21f8:	bdfe      	pop	{r1, r2, r3, r4, r5, r6, r7, pc}
    21fa:	46c0      	nop			; (mov r8, r8)
    21fc:	0000299d 	.word	0x0000299d
    2200:	000029c5 	.word	0x000029c5
    2204:	000029d7 	.word	0x000029d7

00002208 <sha1>:
    2208:	2300      	movs	r3, #0
    220a:	b5f0      	push	{r4, r5, r6, r7, lr}
    220c:	b0df      	sub	sp, #380	; 0x17c
    220e:	930d      	str	r3, [sp, #52]	; 0x34
    2210:	aa0d      	add	r2, sp, #52	; 0x34
    2212:	4b54      	ldr	r3, [pc, #336]	; (2364 <sha1+0x15c>)
    2214:	4798      	blx	r3
    2216:	4b54      	ldr	r3, [pc, #336]	; (2368 <sha1+0x160>)
    2218:	4f54      	ldr	r7, [pc, #336]	; (236c <sha1+0x164>)
    221a:	9303      	str	r3, [sp, #12]
    221c:	4b54      	ldr	r3, [pc, #336]	; (2370 <sha1+0x168>)
    221e:	9008      	str	r0, [sp, #32]
    2220:	9302      	str	r3, [sp, #8]
    2222:	4b54      	ldr	r3, [pc, #336]	; (2374 <sha1+0x16c>)
    2224:	9004      	str	r0, [sp, #16]
    2226:	9301      	str	r3, [sp, #4]
    2228:	4b53      	ldr	r3, [pc, #332]	; (2378 <sha1+0x170>)
    222a:	9300      	str	r3, [sp, #0]
    222c:	9a08      	ldr	r2, [sp, #32]
    222e:	9b04      	ldr	r3, [sp, #16]
    2230:	1a9b      	subs	r3, r3, r2
    2232:	9a0d      	ldr	r2, [sp, #52]	; 0x34
    2234:	429a      	cmp	r2, r3
    2236:	d81e      	bhi.n	2276 <sha1+0x6e>
    2238:	9808      	ldr	r0, [sp, #32]
    223a:	4b50      	ldr	r3, [pc, #320]	; (237c <sha1+0x174>)
    223c:	4798      	blx	r3
    223e:	4b50      	ldr	r3, [pc, #320]	; (2380 <sha1+0x178>)
    2240:	2014      	movs	r0, #20
    2242:	4798      	blx	r3
    2244:	9b00      	ldr	r3, [sp, #0]
    2246:	0001      	movs	r1, r0
    2248:	6003      	str	r3, [r0, #0]
    224a:	9b01      	ldr	r3, [sp, #4]
    224c:	6107      	str	r7, [r0, #16]
    224e:	6043      	str	r3, [r0, #4]
    2250:	9b02      	ldr	r3, [sp, #8]
    2252:	3114      	adds	r1, #20
    2254:	6083      	str	r3, [r0, #8]
    2256:	9b03      	ldr	r3, [sp, #12]
    2258:	60c3      	str	r3, [r0, #12]
    225a:	0003      	movs	r3, r0
    225c:	681a      	ldr	r2, [r3, #0]
    225e:	0e14      	lsrs	r4, r2, #24
    2260:	701c      	strb	r4, [r3, #0]
    2262:	0c14      	lsrs	r4, r2, #16
    2264:	705c      	strb	r4, [r3, #1]
    2266:	0a14      	lsrs	r4, r2, #8
    2268:	709c      	strb	r4, [r3, #2]
    226a:	70da      	strb	r2, [r3, #3]
    226c:	3304      	adds	r3, #4
    226e:	4299      	cmp	r1, r3
    2270:	d1f4      	bne.n	225c <sha1+0x54>
    2272:	b05f      	add	sp, #380	; 0x17c
    2274:	bdf0      	pop	{r4, r5, r6, r7, pc}
    2276:	2100      	movs	r1, #0
    2278:	9a04      	ldr	r2, [sp, #16]
    227a:	a80e      	add	r0, sp, #56	; 0x38
    227c:	7813      	ldrb	r3, [r2, #0]
    227e:	7854      	ldrb	r4, [r2, #1]
    2280:	061b      	lsls	r3, r3, #24
    2282:	0424      	lsls	r4, r4, #16
    2284:	4323      	orrs	r3, r4
    2286:	78d4      	ldrb	r4, [r2, #3]
    2288:	4323      	orrs	r3, r4
    228a:	7894      	ldrb	r4, [r2, #2]
    228c:	3204      	adds	r2, #4
    228e:	0224      	lsls	r4, r4, #8
    2290:	4323      	orrs	r3, r4
    2292:	500b      	str	r3, [r1, r0]
    2294:	3104      	adds	r1, #4
    2296:	2940      	cmp	r1, #64	; 0x40
    2298:	d1f0      	bne.n	227c <sha1+0x74>
    229a:	2600      	movs	r6, #0
    229c:	9b03      	ldr	r3, [sp, #12]
    229e:	970a      	str	r7, [sp, #40]	; 0x28
    22a0:	9307      	str	r3, [sp, #28]
    22a2:	9b02      	ldr	r3, [sp, #8]
    22a4:	ac0e      	add	r4, sp, #56	; 0x38
    22a6:	9305      	str	r3, [sp, #20]
    22a8:	9b01      	ldr	r3, [sp, #4]
    22aa:	9309      	str	r3, [sp, #36]	; 0x24
    22ac:	9b00      	ldr	r3, [sp, #0]
    22ae:	9306      	str	r3, [sp, #24]
    22b0:	230f      	movs	r3, #15
    22b2:	4033      	ands	r3, r6
    22b4:	009a      	lsls	r2, r3, #2
    22b6:	920b      	str	r2, [sp, #44]	; 0x2c
    22b8:	2e0f      	cmp	r6, #15
    22ba:	dd18      	ble.n	22ee <sha1+0xe6>
    22bc:	001a      	movs	r2, r3
    22be:	210f      	movs	r1, #15
    22c0:	320d      	adds	r2, #13
    22c2:	400a      	ands	r2, r1
    22c4:	0019      	movs	r1, r3
    22c6:	200f      	movs	r0, #15
    22c8:	3108      	adds	r1, #8
    22ca:	4001      	ands	r1, r0
    22cc:	0092      	lsls	r2, r2, #2
    22ce:	0089      	lsls	r1, r1, #2
    22d0:	5909      	ldr	r1, [r1, r4]
    22d2:	5912      	ldr	r2, [r2, r4]
    22d4:	404a      	eors	r2, r1
    22d6:	0099      	lsls	r1, r3, #2
    22d8:	3302      	adds	r3, #2
    22da:	4003      	ands	r3, r0
    22dc:	5861      	ldr	r1, [r4, r1]
    22de:	009b      	lsls	r3, r3, #2
    22e0:	591b      	ldr	r3, [r3, r4]
    22e2:	404a      	eors	r2, r1
    22e4:	4053      	eors	r3, r2
    22e6:	221f      	movs	r2, #31
    22e8:	41d3      	rors	r3, r2
    22ea:	9a0b      	ldr	r2, [sp, #44]	; 0x2c
    22ec:	50a3      	str	r3, [r4, r2]
    22ee:	9909      	ldr	r1, [sp, #36]	; 0x24
    22f0:	9b07      	ldr	r3, [sp, #28]
    22f2:	9a05      	ldr	r2, [sp, #20]
    22f4:	b2f0      	uxtb	r0, r6
    22f6:	4d23      	ldr	r5, [pc, #140]	; (2384 <sha1+0x17c>)
    22f8:	47a8      	blx	r5
    22fa:	231b      	movs	r3, #27
    22fc:	9a06      	ldr	r2, [sp, #24]
    22fe:	41da      	rors	r2, r3
    2300:	0013      	movs	r3, r2
    2302:	9a0b      	ldr	r2, [sp, #44]	; 0x2c
    2304:	58a5      	ldr	r5, [r4, r2]
    2306:	195d      	adds	r5, r3, r5
    2308:	182d      	adds	r5, r5, r0
    230a:	4b1f      	ldr	r3, [pc, #124]	; (2388 <sha1+0x180>)
    230c:	b2f0      	uxtb	r0, r6
    230e:	4798      	blx	r3
    2310:	9b0a      	ldr	r3, [sp, #40]	; 0x28
    2312:	1945      	adds	r5, r0, r5
    2314:	18ed      	adds	r5, r5, r3
    2316:	2302      	movs	r3, #2
    2318:	9a09      	ldr	r2, [sp, #36]	; 0x24
    231a:	3601      	adds	r6, #1
    231c:	41da      	rors	r2, r3
    231e:	0013      	movs	r3, r2
    2320:	9a06      	ldr	r2, [sp, #24]
    2322:	9209      	str	r2, [sp, #36]	; 0x24
    2324:	9a07      	ldr	r2, [sp, #28]
    2326:	920a      	str	r2, [sp, #40]	; 0x28
    2328:	2e50      	cmp	r6, #80	; 0x50
    232a:	d115      	bne.n	2358 <sha1+0x150>
    232c:	9906      	ldr	r1, [sp, #24]
    232e:	9a00      	ldr	r2, [sp, #0]
    2330:	468c      	mov	ip, r1
    2332:	1952      	adds	r2, r2, r5
    2334:	9200      	str	r2, [sp, #0]
    2336:	9a01      	ldr	r2, [sp, #4]
    2338:	4462      	add	r2, ip
    233a:	9201      	str	r2, [sp, #4]
    233c:	9a02      	ldr	r2, [sp, #8]
    233e:	18d3      	adds	r3, r2, r3
    2340:	9a05      	ldr	r2, [sp, #20]
    2342:	9302      	str	r3, [sp, #8]
    2344:	4694      	mov	ip, r2
    2346:	9b03      	ldr	r3, [sp, #12]
    2348:	4463      	add	r3, ip
    234a:	9303      	str	r3, [sp, #12]
    234c:	9b07      	ldr	r3, [sp, #28]
    234e:	18ff      	adds	r7, r7, r3
    2350:	9b04      	ldr	r3, [sp, #16]
    2352:	3340      	adds	r3, #64	; 0x40
    2354:	9304      	str	r3, [sp, #16]
    2356:	e769      	b.n	222c <sha1+0x24>
    2358:	9a05      	ldr	r2, [sp, #20]
    235a:	9506      	str	r5, [sp, #24]
    235c:	9207      	str	r2, [sp, #28]
    235e:	9305      	str	r3, [sp, #20]
    2360:	e7a6      	b.n	22b0 <sha1+0xa8>
    2362:	46c0      	nop			; (mov r8, r8)
    2364:	00002189 	.word	0x00002189
    2368:	10325476 	.word	0x10325476
    236c:	c3d2e1f0 	.word	0xc3d2e1f0
    2370:	98badcfe 	.word	0x98badcfe
    2374:	efcdab89 	.word	0xefcdab89
    2378:	67452301 	.word	0x67452301
    237c:	000029b1 	.word	0x000029b1
    2380:	0000299d 	.word	0x0000299d
    2384:	00002121 	.word	0x00002121
    2388:	0000215d 	.word	0x0000215d

0000238c <hmac_pad>:
    238c:	b5f8      	push	{r3, r4, r5, r6, r7, lr}
    238e:	0007      	movs	r7, r0
    2390:	4b08      	ldr	r3, [pc, #32]	; (23b4 <hmac_pad+0x28>)
    2392:	0010      	movs	r0, r2
    2394:	000c      	movs	r4, r1
    2396:	0015      	movs	r5, r2
    2398:	4798      	blx	r3
    239a:	0006      	movs	r6, r0
    239c:	0039      	movs	r1, r7
    239e:	0022      	movs	r2, r4
    23a0:	4b05      	ldr	r3, [pc, #20]	; (23b8 <hmac_pad+0x2c>)
    23a2:	4798      	blx	r3
    23a4:	1b2a      	subs	r2, r5, r4
    23a6:	1930      	adds	r0, r6, r4
    23a8:	2100      	movs	r1, #0
    23aa:	4b04      	ldr	r3, [pc, #16]	; (23bc <hmac_pad+0x30>)
    23ac:	4798      	blx	r3
    23ae:	0030      	movs	r0, r6
    23b0:	bdf8      	pop	{r3, r4, r5, r6, r7, pc}
    23b2:	46c0      	nop			; (mov r8, r8)
    23b4:	0000299d 	.word	0x0000299d
    23b8:	000029c5 	.word	0x000029c5
    23bc:	000029d7 	.word	0x000029d7

000023c0 <hmac>:
    23c0:	b5f0      	push	{r4, r5, r6, r7, lr}
    23c2:	b087      	sub	sp, #28
    23c4:	9d0c      	ldr	r5, [sp, #48]	; 0x30
    23c6:	9005      	str	r0, [sp, #20]
    23c8:	000e      	movs	r6, r1
    23ca:	0010      	movs	r0, r2
    23cc:	0019      	movs	r1, r3
    23ce:	4c2f      	ldr	r4, [pc, #188]	; (248c <hmac+0xcc>)
    23d0:	42ab      	cmp	r3, r5
    23d2:	d94b      	bls.n	246c <hmac+0xac>
    23d4:	4b2e      	ldr	r3, [pc, #184]	; (2490 <hmac+0xd0>)
    23d6:	4798      	blx	r3
    23d8:	002a      	movs	r2, r5
    23da:	990d      	ldr	r1, [sp, #52]	; 0x34
    23dc:	0007      	movs	r7, r0
    23de:	47a0      	blx	r4
    23e0:	4b2c      	ldr	r3, [pc, #176]	; (2494 <hmac+0xd4>)
    23e2:	9002      	str	r0, [sp, #8]
    23e4:	0038      	movs	r0, r7
    23e6:	4798      	blx	r3
    23e8:	4c2b      	ldr	r4, [pc, #172]	; (2498 <hmac+0xd8>)
    23ea:	0028      	movs	r0, r5
    23ec:	47a0      	blx	r4
    23ee:	9003      	str	r0, [sp, #12]
    23f0:	0028      	movs	r0, r5
    23f2:	47a0      	blx	r4
    23f4:	2400      	movs	r4, #0
    23f6:	2236      	movs	r2, #54	; 0x36
    23f8:	215c      	movs	r1, #92	; 0x5c
    23fa:	9004      	str	r0, [sp, #16]
    23fc:	42ac      	cmp	r4, r5
    23fe:	d139      	bne.n	2474 <hmac+0xb4>
    2400:	19a5      	adds	r5, r4, r6
    2402:	4b25      	ldr	r3, [pc, #148]	; (2498 <hmac+0xd8>)
    2404:	0028      	movs	r0, r5
    2406:	4798      	blx	r3
    2408:	4f24      	ldr	r7, [pc, #144]	; (249c <hmac+0xdc>)
    240a:	0022      	movs	r2, r4
    240c:	9903      	ldr	r1, [sp, #12]
    240e:	9001      	str	r0, [sp, #4]
    2410:	47b8      	blx	r7
    2412:	9b01      	ldr	r3, [sp, #4]
    2414:	0032      	movs	r2, r6
    2416:	1918      	adds	r0, r3, r4
    2418:	9905      	ldr	r1, [sp, #20]
    241a:	47b8      	blx	r7
    241c:	0029      	movs	r1, r5
    241e:	9801      	ldr	r0, [sp, #4]
    2420:	4b1b      	ldr	r3, [pc, #108]	; (2490 <hmac+0xd0>)
    2422:	4798      	blx	r3
    2424:	9b0d      	ldr	r3, [sp, #52]	; 0x34
    2426:	0006      	movs	r6, r0
    2428:	18e3      	adds	r3, r4, r3
    242a:	9305      	str	r3, [sp, #20]
    242c:	0018      	movs	r0, r3
    242e:	4b1a      	ldr	r3, [pc, #104]	; (2498 <hmac+0xd8>)
    2430:	4798      	blx	r3
    2432:	0005      	movs	r5, r0
    2434:	0022      	movs	r2, r4
    2436:	9904      	ldr	r1, [sp, #16]
    2438:	47b8      	blx	r7
    243a:	9a0d      	ldr	r2, [sp, #52]	; 0x34
    243c:	1928      	adds	r0, r5, r4
    243e:	0031      	movs	r1, r6
    2440:	47b8      	blx	r7
    2442:	9905      	ldr	r1, [sp, #20]
    2444:	4b12      	ldr	r3, [pc, #72]	; (2490 <hmac+0xd0>)
    2446:	0028      	movs	r0, r5
    2448:	4798      	blx	r3
    244a:	0007      	movs	r7, r0
    244c:	4c11      	ldr	r4, [pc, #68]	; (2494 <hmac+0xd4>)
    244e:	9803      	ldr	r0, [sp, #12]
    2450:	47a0      	blx	r4
    2452:	9804      	ldr	r0, [sp, #16]
    2454:	47a0      	blx	r4
    2456:	9801      	ldr	r0, [sp, #4]
    2458:	47a0      	blx	r4
    245a:	0030      	movs	r0, r6
    245c:	47a0      	blx	r4
    245e:	0028      	movs	r0, r5
    2460:	47a0      	blx	r4
    2462:	9802      	ldr	r0, [sp, #8]
    2464:	47a0      	blx	r4
    2466:	0038      	movs	r0, r7
    2468:	b007      	add	sp, #28
    246a:	bdf0      	pop	{r4, r5, r6, r7, pc}
    246c:	002a      	movs	r2, r5
    246e:	47a0      	blx	r4
    2470:	9002      	str	r0, [sp, #8]
    2472:	e7b9      	b.n	23e8 <hmac+0x28>
    2474:	0010      	movs	r0, r2
    2476:	9b02      	ldr	r3, [sp, #8]
    2478:	9f03      	ldr	r7, [sp, #12]
    247a:	5d1b      	ldrb	r3, [r3, r4]
    247c:	4058      	eors	r0, r3
    247e:	5538      	strb	r0, [r7, r4]
    2480:	9804      	ldr	r0, [sp, #16]
    2482:	404b      	eors	r3, r1
    2484:	5503      	strb	r3, [r0, r4]
    2486:	3401      	adds	r4, #1
    2488:	e7b8      	b.n	23fc <hmac+0x3c>
    248a:	46c0      	nop			; (mov r8, r8)
    248c:	0000238d 	.word	0x0000238d
    2490:	00002209 	.word	0x00002209
    2494:	000029b1 	.word	0x000029b1
    2498:	0000299d 	.word	0x0000299d
    249c:	000029c5 	.word	0x000029c5

000024a0 <hotp_DT>:
    24a0:	230f      	movs	r3, #15
    24a2:	1841      	adds	r1, r0, r1
    24a4:	3901      	subs	r1, #1
    24a6:	780a      	ldrb	r2, [r1, #0]
    24a8:	21fe      	movs	r1, #254	; 0xfe
    24aa:	401a      	ands	r2, r3
    24ac:	5c83      	ldrb	r3, [r0, r2]
    24ae:	1882      	adds	r2, r0, r2
    24b0:	7850      	ldrb	r0, [r2, #1]
    24b2:	05c9      	lsls	r1, r1, #23
    24b4:	061b      	lsls	r3, r3, #24
    24b6:	400b      	ands	r3, r1
    24b8:	0400      	lsls	r0, r0, #16
    24ba:	4318      	orrs	r0, r3
    24bc:	78d3      	ldrb	r3, [r2, #3]
    24be:	4318      	orrs	r0, r3
    24c0:	7893      	ldrb	r3, [r2, #2]
    24c2:	021b      	lsls	r3, r3, #8
    24c4:	4318      	orrs	r0, r3
    24c6:	4770      	bx	lr

000024c8 <hotp>:
    24c8:	b57f      	push	{r0, r1, r2, r3, r4, r5, r6, lr}
    24ca:	9d09      	ldr	r5, [sp, #36]	; 0x24
    24cc:	0013      	movs	r3, r2
    24ce:	0006      	movs	r6, r0
    24d0:	0e2a      	lsrs	r2, r5, #24
    24d2:	a802      	add	r0, sp, #8
    24d4:	9c08      	ldr	r4, [sp, #32]
    24d6:	7002      	strb	r2, [r0, #0]
    24d8:	0c2a      	lsrs	r2, r5, #16
    24da:	7042      	strb	r2, [r0, #1]
    24dc:	0a2a      	lsrs	r2, r5, #8
    24de:	7082      	strb	r2, [r0, #2]
    24e0:	0e22      	lsrs	r2, r4, #24
    24e2:	7102      	strb	r2, [r0, #4]
    24e4:	0c22      	lsrs	r2, r4, #16
    24e6:	7142      	strb	r2, [r0, #5]
    24e8:	0a22      	lsrs	r2, r4, #8
    24ea:	7182      	strb	r2, [r0, #6]
    24ec:	71c4      	strb	r4, [r0, #7]
    24ee:	2240      	movs	r2, #64	; 0x40
    24f0:	2414      	movs	r4, #20
    24f2:	70c5      	strb	r5, [r0, #3]
    24f4:	9401      	str	r4, [sp, #4]
    24f6:	9200      	str	r2, [sp, #0]
    24f8:	4d0b      	ldr	r5, [pc, #44]	; (2528 <hotp+0x60>)
    24fa:	000a      	movs	r2, r1
    24fc:	2108      	movs	r1, #8
    24fe:	47a8      	blx	r5
    2500:	0021      	movs	r1, r4
    2502:	4b0a      	ldr	r3, [pc, #40]	; (252c <hotp+0x64>)
    2504:	0005      	movs	r5, r0
    2506:	4798      	blx	r3
    2508:	4b09      	ldr	r3, [pc, #36]	; (2530 <hotp+0x68>)
    250a:	0004      	movs	r4, r0
    250c:	0028      	movs	r0, r5
    250e:	4798      	blx	r3
    2510:	4b08      	ldr	r3, [pc, #32]	; (2534 <hotp+0x6c>)
    2512:	2e06      	cmp	r6, #6
    2514:	d105      	bne.n	2522 <hotp+0x5a>
    2516:	4908      	ldr	r1, [pc, #32]	; (2538 <hotp+0x70>)
    2518:	0020      	movs	r0, r4
    251a:	4798      	blx	r3
    251c:	0008      	movs	r0, r1
    251e:	b004      	add	sp, #16
    2520:	bd70      	pop	{r4, r5, r6, pc}
    2522:	4906      	ldr	r1, [pc, #24]	; (253c <hotp+0x74>)
    2524:	e7f8      	b.n	2518 <hotp+0x50>
    2526:	46c0      	nop			; (mov r8, r8)
    2528:	000023c1 	.word	0x000023c1
    252c:	000024a1 	.word	0x000024a1
    2530:	000029b1 	.word	0x000029b1
    2534:	0000291d 	.word	0x0000291d
    2538:	000f4240 	.word	0x000f4240
    253c:	05f5e100 	.word	0x05f5e100

00002540 <flash_init>:
    2540:	b5f8      	push	{r3, r4, r5, r6, r7, lr}
    2542:	4e1e      	ldr	r6, [pc, #120]	; (25bc <flash_init+0x7c>)
    2544:	4a1e      	ldr	r2, [pc, #120]	; (25c0 <flash_init+0x80>)
    2546:	68b3      	ldr	r3, [r6, #8]
    2548:	68b1      	ldr	r1, [r6, #8]
    254a:	035b      	lsls	r3, r3, #13
    254c:	0f5b      	lsrs	r3, r3, #29
    254e:	009b      	lsls	r3, r3, #2
    2550:	589d      	ldr	r5, [r3, r2]
    2552:	b289      	uxth	r1, r1
    2554:	434d      	muls	r5, r1
    2556:	0029      	movs	r1, r5
    2558:	481a      	ldr	r0, [pc, #104]	; (25c4 <flash_init+0x84>)
    255a:	4c1b      	ldr	r4, [pc, #108]	; (25c8 <flash_init+0x88>)
    255c:	1e6b      	subs	r3, r5, #1
    255e:	3915      	subs	r1, #21
    2560:	3bff      	subs	r3, #255	; 0xff
    2562:	39ff      	subs	r1, #255	; 0xff
    2564:	2214      	movs	r2, #20
    2566:	4f19      	ldr	r7, [pc, #100]	; (25cc <flash_init+0x8c>)
    2568:	300c      	adds	r0, #12
    256a:	6063      	str	r3, [r4, #4]
    256c:	47b8      	blx	r7
    256e:	0029      	movs	r1, r5
    2570:	2204      	movs	r2, #4
    2572:	3940      	subs	r1, #64	; 0x40
    2574:	4816      	ldr	r0, [pc, #88]	; (25d0 <flash_init+0x90>)
    2576:	47b8      	blx	r7
    2578:	7ae3      	ldrb	r3, [r4, #11]
    257a:	2bff      	cmp	r3, #255	; 0xff
    257c:	d104      	bne.n	2588 <flash_init+0x48>
    257e:	0029      	movs	r1, r5
    2580:	2204      	movs	r2, #4
    2582:	3910      	subs	r1, #16
    2584:	4812      	ldr	r0, [pc, #72]	; (25d0 <flash_init+0x90>)
    2586:	47b8      	blx	r7
    2588:	7a62      	ldrb	r2, [r4, #9]
    258a:	7a23      	ldrb	r3, [r4, #8]
    258c:	0212      	lsls	r2, r2, #8
    258e:	431a      	orrs	r2, r3
    2590:	7aa3      	ldrb	r3, [r4, #10]
    2592:	041b      	lsls	r3, r3, #16
    2594:	431a      	orrs	r2, r3
    2596:	7ae3      	ldrb	r3, [r4, #11]
    2598:	061b      	lsls	r3, r3, #24
    259a:	4313      	orrs	r3, r2
    259c:	2210      	movs	r2, #16
    259e:	60e3      	str	r3, [r4, #12]
    25a0:	4b0c      	ldr	r3, [pc, #48]	; (25d4 <flash_init+0x94>)
    25a2:	6959      	ldr	r1, [r3, #20]
    25a4:	430a      	orrs	r2, r1
    25a6:	615a      	str	r2, [r3, #20]
    25a8:	2204      	movs	r2, #4
    25aa:	69d9      	ldr	r1, [r3, #28]
    25ac:	430a      	orrs	r2, r1
    25ae:	61da      	str	r2, [r3, #28]
    25b0:	2380      	movs	r3, #128	; 0x80
    25b2:	6872      	ldr	r2, [r6, #4]
    25b4:	4313      	orrs	r3, r2
    25b6:	6073      	str	r3, [r6, #4]
    25b8:	bdf8      	pop	{r3, r4, r5, r6, r7, pc}
    25ba:	46c0      	nop			; (mov r8, r8)
    25bc:	41004000 	.word	0x41004000
    25c0:	000038e4 	.word	0x000038e4
    25c4:	20000008 	.word	0x20000008
    25c8:	200005b4 	.word	0x200005b4
    25cc:	000029c5 	.word	0x000029c5
    25d0:	200005bc 	.word	0x200005bc
    25d4:	40000400 	.word	0x40000400

000025d8 <flash_write>:
    25d8:	2280      	movs	r2, #128	; 0x80
    25da:	b570      	push	{r4, r5, r6, lr}
    25dc:	4b13      	ldr	r3, [pc, #76]	; (262c <flash_write+0x54>)
    25de:	b0c0      	sub	sp, #256	; 0x100
    25e0:	685c      	ldr	r4, [r3, #4]
    25e2:	0006      	movs	r6, r0
    25e4:	0052      	lsls	r2, r2, #1
    25e6:	0021      	movs	r1, r4
    25e8:	4b11      	ldr	r3, [pc, #68]	; (2630 <flash_write+0x58>)
    25ea:	4668      	mov	r0, sp
    25ec:	4798      	blx	r3
    25ee:	2220      	movs	r2, #32
    25f0:	466d      	mov	r5, sp
    25f2:	4b10      	ldr	r3, [pc, #64]	; (2634 <flash_write+0x5c>)
    25f4:	9630      	str	r6, [sp, #192]	; 0xc0
    25f6:	963c      	str	r6, [sp, #240]	; 0xf0
    25f8:	8b19      	ldrh	r1, [r3, #24]
    25fa:	32ff      	adds	r2, #255	; 0xff
    25fc:	430a      	orrs	r2, r1
    25fe:	831a      	strh	r2, [r3, #24]
    2600:	0862      	lsrs	r2, r4, #1
    2602:	61da      	str	r2, [r3, #28]
    2604:	4a0c      	ldr	r2, [pc, #48]	; (2638 <flash_write+0x60>)
    2606:	801a      	strh	r2, [r3, #0]
    2608:	7d1a      	ldrb	r2, [r3, #20]
    260a:	07d2      	lsls	r2, r2, #31
    260c:	d5fc      	bpl.n	2608 <flash_write+0x30>
    260e:	1c62      	adds	r2, r4, #1
    2610:	32ff      	adds	r2, #255	; 0xff
    2612:	1b2d      	subs	r5, r5, r4
    2614:	5929      	ldr	r1, [r5, r4]
    2616:	c402      	stmia	r4!, {r1}
    2618:	4294      	cmp	r4, r2
    261a:	d1fb      	bne.n	2614 <flash_write+0x3c>
    261c:	4a07      	ldr	r2, [pc, #28]	; (263c <flash_write+0x64>)
    261e:	801a      	strh	r2, [r3, #0]
    2620:	7d1a      	ldrb	r2, [r3, #20]
    2622:	07d2      	lsls	r2, r2, #31
    2624:	d5fc      	bpl.n	2620 <flash_write+0x48>
    2626:	b040      	add	sp, #256	; 0x100
    2628:	bd70      	pop	{r4, r5, r6, pc}
    262a:	46c0      	nop			; (mov r8, r8)
    262c:	200005b4 	.word	0x200005b4
    2630:	000029c5 	.word	0x000029c5
    2634:	41004000 	.word	0x41004000
    2638:	ffffa502 	.word	0xffffa502
    263c:	ffffa504 	.word	0xffffa504

00002640 <main>:
    2640:	b5f0      	push	{r4, r5, r6, r7, lr}
    2642:	4b55      	ldr	r3, [pc, #340]	; (2798 <main+0x158>)
    2644:	b085      	sub	sp, #20
    2646:	4798      	blx	r3
    2648:	4b54      	ldr	r3, [pc, #336]	; (279c <main+0x15c>)
    264a:	4798      	blx	r3
    264c:	22c0      	movs	r2, #192	; 0xc0
    264e:	2120      	movs	r1, #32
    2650:	2304      	movs	r3, #4
    2652:	05d2      	lsls	r2, r2, #23
    2654:	4852      	ldr	r0, [pc, #328]	; (27a0 <main+0x160>)
    2656:	6051      	str	r1, [r2, #4]
    2658:	7804      	ldrb	r4, [r0, #0]
    265a:	4323      	orrs	r3, r4
    265c:	4c51      	ldr	r4, [pc, #324]	; (27a4 <main+0x164>)
    265e:	7003      	strb	r3, [r0, #0]
    2660:	0020      	movs	r0, r4
    2662:	6191      	str	r1, [r2, #24]
    2664:	4b50      	ldr	r3, [pc, #320]	; (27a8 <main+0x168>)
    2666:	3010      	adds	r0, #16
    2668:	4798      	blx	r3
    266a:	4b50      	ldr	r3, [pc, #320]	; (27ac <main+0x16c>)
    266c:	4798      	blx	r3
    266e:	4d50      	ldr	r5, [pc, #320]	; (27b0 <main+0x170>)
    2670:	4b50      	ldr	r3, [pc, #320]	; (27b4 <main+0x174>)
    2672:	0028      	movs	r0, r5
    2674:	3020      	adds	r0, #32
    2676:	4798      	blx	r3
    2678:	4b4f      	ldr	r3, [pc, #316]	; (27b8 <main+0x178>)
    267a:	4798      	blx	r3
    267c:	4b4f      	ldr	r3, [pc, #316]	; (27bc <main+0x17c>)
    267e:	4798      	blx	r3
    2680:	9003      	str	r0, [sp, #12]
    2682:	2800      	cmp	r0, #0
    2684:	d0fa      	beq.n	267c <main+0x3c>
    2686:	0029      	movs	r1, r5
    2688:	4b4d      	ldr	r3, [pc, #308]	; (27c0 <main+0x180>)
    268a:	3128      	adds	r1, #40	; 0x28
    268c:	2000      	movs	r0, #0
    268e:	4798      	blx	r3
    2690:	23c0      	movs	r3, #192	; 0xc0
    2692:	2210      	movs	r2, #16
    2694:	05db      	lsls	r3, r3, #23
    2696:	619a      	str	r2, [r3, #24]
    2698:	896b      	ldrh	r3, [r5, #10]
    269a:	2b00      	cmp	r3, #0
    269c:	d10c      	bne.n	26b8 <main+0x78>
    269e:	782b      	ldrb	r3, [r5, #0]
    26a0:	2b00      	cmp	r3, #0
    26a2:	d009      	beq.n	26b8 <main+0x78>
    26a4:	7823      	ldrb	r3, [r4, #0]
    26a6:	2b05      	cmp	r3, #5
    26a8:	d906      	bls.n	26b8 <main+0x78>
    26aa:	2347      	movs	r3, #71	; 0x47
    26ac:	7063      	strb	r3, [r4, #1]
    26ae:	4b45      	ldr	r3, [pc, #276]	; (27c4 <main+0x184>)
    26b0:	4a45      	ldr	r2, [pc, #276]	; (27c8 <main+0x188>)
    26b2:	816b      	strh	r3, [r5, #10]
    26b4:	2301      	movs	r3, #1
    26b6:	7013      	strb	r3, [r2, #0]
    26b8:	4b43      	ldr	r3, [pc, #268]	; (27c8 <main+0x188>)
    26ba:	781b      	ldrb	r3, [r3, #0]
    26bc:	2b00      	cmp	r3, #0
    26be:	d00c      	beq.n	26da <main+0x9a>
    26c0:	782b      	ldrb	r3, [r5, #0]
    26c2:	2b00      	cmp	r3, #0
    26c4:	d009      	beq.n	26da <main+0x9a>
    26c6:	7823      	ldrb	r3, [r4, #0]
    26c8:	2b05      	cmp	r3, #5
    26ca:	d906      	bls.n	26da <main+0x9a>
    26cc:	7863      	ldrb	r3, [r4, #1]
    26ce:	2b00      	cmp	r3, #0
    26d0:	d103      	bne.n	26da <main+0x9a>
    26d2:	2247      	movs	r2, #71	; 0x47
    26d4:	7062      	strb	r2, [r4, #1]
    26d6:	4a3c      	ldr	r2, [pc, #240]	; (27c8 <main+0x188>)
    26d8:	7013      	strb	r3, [r2, #0]
    26da:	4b3c      	ldr	r3, [pc, #240]	; (27cc <main+0x18c>)
    26dc:	4798      	blx	r3
    26de:	0683      	lsls	r3, r0, #26
    26e0:	d4da      	bmi.n	2698 <main+0x58>
    26e2:	4b39      	ldr	r3, [pc, #228]	; (27c8 <main+0x188>)
    26e4:	781f      	ldrb	r7, [r3, #0]
    26e6:	2f00      	cmp	r7, #0
    26e8:	d1d6      	bne.n	2698 <main+0x58>
    26ea:	7863      	ldrb	r3, [r4, #1]
    26ec:	2b00      	cmp	r3, #0
    26ee:	d1d3      	bne.n	2698 <main+0x58>
    26f0:	0029      	movs	r1, r5
    26f2:	68e3      	ldr	r3, [r4, #12]
    26f4:	310c      	adds	r1, #12
    26f6:	3301      	adds	r3, #1
    26f8:	60e3      	str	r3, [r4, #12]
    26fa:	2214      	movs	r2, #20
    26fc:	9300      	str	r3, [sp, #0]
    26fe:	9701      	str	r7, [sp, #4]
    2700:	4b33      	ldr	r3, [pc, #204]	; (27d0 <main+0x190>)
    2702:	2008      	movs	r0, #8
    2704:	4798      	blx	r3
    2706:	2307      	movs	r3, #7
    2708:	0006      	movs	r6, r0
    270a:	6560      	str	r0, [r4, #84]	; 0x54
    270c:	9302      	str	r3, [sp, #8]
    270e:	2e00      	cmp	r6, #0
    2710:	d126      	bne.n	2760 <main+0x120>
    2712:	2f00      	cmp	r7, #0
    2714:	d000      	beq.n	2718 <main+0xd8>
    2716:	6566      	str	r6, [r4, #84]	; 0x54
    2718:	2600      	movs	r6, #0
    271a:	2727      	movs	r7, #39	; 0x27
    271c:	0023      	movs	r3, r4
    271e:	3358      	adds	r3, #88	; 0x58
    2720:	5cf3      	ldrb	r3, [r6, r3]
    2722:	2b00      	cmp	r3, #0
    2724:	d130      	bne.n	2788 <main+0x148>
    2726:	7067      	strb	r7, [r4, #1]
    2728:	7863      	ldrb	r3, [r4, #1]
    272a:	2b00      	cmp	r3, #0
    272c:	d12f      	bne.n	278e <main+0x14e>
    272e:	3601      	adds	r6, #1
    2730:	2e08      	cmp	r6, #8
    2732:	d1f3      	bne.n	271c <main+0xdc>
    2734:	3328      	adds	r3, #40	; 0x28
    2736:	7063      	strb	r3, [r4, #1]
    2738:	3e07      	subs	r6, #7
    273a:	4b24      	ldr	r3, [pc, #144]	; (27cc <main+0x18c>)
    273c:	4798      	blx	r3
    273e:	7863      	ldrb	r3, [r4, #1]
    2740:	1e5a      	subs	r2, r3, #1
    2742:	4193      	sbcs	r3, r2
    2744:	782a      	ldrb	r2, [r5, #0]
    2746:	4072      	eors	r2, r6
    2748:	4313      	orrs	r3, r2
    274a:	d1f6      	bne.n	273a <main+0xfa>
    274c:	0033      	movs	r3, r6
    274e:	0940      	lsrs	r0, r0, #5
    2750:	4383      	bics	r3, r0
    2752:	d1f2      	bne.n	273a <main+0xfa>
    2754:	4b1f      	ldr	r3, [pc, #124]	; (27d4 <main+0x194>)
    2756:	68e0      	ldr	r0, [r4, #12]
    2758:	4798      	blx	r3
    275a:	4b1a      	ldr	r3, [pc, #104]	; (27c4 <main+0x184>)
    275c:	816b      	strh	r3, [r5, #10]
    275e:	e79b      	b.n	2698 <main+0x58>
    2760:	9b02      	ldr	r3, [sp, #8]
    2762:	3301      	adds	r3, #1
    2764:	d0d5      	beq.n	2712 <main+0xd2>
    2766:	0030      	movs	r0, r6
    2768:	4b1b      	ldr	r3, [pc, #108]	; (27d8 <main+0x198>)
    276a:	210a      	movs	r1, #10
    276c:	4798      	blx	r3
    276e:	9a02      	ldr	r2, [sp, #8]
    2770:	4b1a      	ldr	r3, [pc, #104]	; (27dc <main+0x19c>)
    2772:	0030      	movs	r0, r6
    2774:	54d1      	strb	r1, [r2, r3]
    2776:	4b1a      	ldr	r3, [pc, #104]	; (27e0 <main+0x1a0>)
    2778:	210a      	movs	r1, #10
    277a:	4798      	blx	r3
    277c:	9b02      	ldr	r3, [sp, #8]
    277e:	0006      	movs	r6, r0
    2780:	3b01      	subs	r3, #1
    2782:	9302      	str	r3, [sp, #8]
    2784:	9f03      	ldr	r7, [sp, #12]
    2786:	e7c2      	b.n	270e <main+0xce>
    2788:	331d      	adds	r3, #29
    278a:	7063      	strb	r3, [r4, #1]
    278c:	e7cc      	b.n	2728 <main+0xe8>
    278e:	2032      	movs	r0, #50	; 0x32
    2790:	4b14      	ldr	r3, [pc, #80]	; (27e4 <main+0x1a4>)
    2792:	4798      	blx	r3
    2794:	e7c8      	b.n	2728 <main+0xe8>
    2796:	46c0      	nop			; (mov r8, r8)
    2798:	0000026d 	.word	0x0000026d
    279c:	00002541 	.word	0x00002541
    27a0:	41004445 	.word	0x41004445
    27a4:	200005b4 	.word	0x200005b4
    27a8:	00001f39 	.word	0x00001f39
    27ac:	00001965 	.word	0x00001965
    27b0:	20000008 	.word	0x20000008
    27b4:	00001f95 	.word	0x00001f95
    27b8:	00001fc9 	.word	0x00001fc9
    27bc:	000019a9 	.word	0x000019a9
    27c0:	00001f09 	.word	0x00001f09
    27c4:	ffffea60 	.word	0xffffea60
    27c8:	20000604 	.word	0x20000604
    27cc:	000020f1 	.word	0x000020f1
    27d0:	000024c9 	.word	0x000024c9
    27d4:	000025d9 	.word	0x000025d9
    27d8:	0000291d 	.word	0x0000291d
    27dc:	2000060c 	.word	0x2000060c
    27e0:	00002811 	.word	0x00002811
    27e4:	000002f1 	.word	0x000002f1

000027e8 <__gnu_thumb1_case_sqi>:
    27e8:	b402      	push	{r1}
    27ea:	4671      	mov	r1, lr
    27ec:	0849      	lsrs	r1, r1, #1
    27ee:	0049      	lsls	r1, r1, #1
    27f0:	5609      	ldrsb	r1, [r1, r0]
    27f2:	0049      	lsls	r1, r1, #1
    27f4:	448e      	add	lr, r1
    27f6:	bc02      	pop	{r1}
    27f8:	4770      	bx	lr
    27fa:	46c0      	nop			; (mov r8, r8)

000027fc <__gnu_thumb1_case_shi>:
    27fc:	b403      	push	{r0, r1}
    27fe:	4671      	mov	r1, lr
    2800:	0849      	lsrs	r1, r1, #1
    2802:	0040      	lsls	r0, r0, #1
    2804:	0049      	lsls	r1, r1, #1
    2806:	5e09      	ldrsh	r1, [r1, r0]
    2808:	0049      	lsls	r1, r1, #1
    280a:	448e      	add	lr, r1
    280c:	bc03      	pop	{r0, r1}
    280e:	4770      	bx	lr

00002810 <__udivsi3>:
    2810:	2200      	movs	r2, #0
    2812:	0843      	lsrs	r3, r0, #1
    2814:	428b      	cmp	r3, r1
    2816:	d374      	bcc.n	2902 <__udivsi3+0xf2>
    2818:	0903      	lsrs	r3, r0, #4
    281a:	428b      	cmp	r3, r1
    281c:	d35f      	bcc.n	28de <__udivsi3+0xce>
    281e:	0a03      	lsrs	r3, r0, #8
    2820:	428b      	cmp	r3, r1
    2822:	d344      	bcc.n	28ae <__udivsi3+0x9e>
    2824:	0b03      	lsrs	r3, r0, #12
    2826:	428b      	cmp	r3, r1
    2828:	d328      	bcc.n	287c <__udivsi3+0x6c>
    282a:	0c03      	lsrs	r3, r0, #16
    282c:	428b      	cmp	r3, r1
    282e:	d30d      	bcc.n	284c <__udivsi3+0x3c>
    2830:	22ff      	movs	r2, #255	; 0xff
    2832:	0209      	lsls	r1, r1, #8
    2834:	ba12      	rev	r2, r2
    2836:	0c03      	lsrs	r3, r0, #16
    2838:	428b      	cmp	r3, r1
    283a:	d302      	bcc.n	2842 <__udivsi3+0x32>
    283c:	1212      	asrs	r2, r2, #8
    283e:	0209      	lsls	r1, r1, #8
    2840:	d065      	beq.n	290e <__udivsi3+0xfe>
    2842:	0b03      	lsrs	r3, r0, #12
    2844:	428b      	cmp	r3, r1
    2846:	d319      	bcc.n	287c <__udivsi3+0x6c>
    2848:	e000      	b.n	284c <__udivsi3+0x3c>
    284a:	0a09      	lsrs	r1, r1, #8
    284c:	0bc3      	lsrs	r3, r0, #15
    284e:	428b      	cmp	r3, r1
    2850:	d301      	bcc.n	2856 <__udivsi3+0x46>
    2852:	03cb      	lsls	r3, r1, #15
    2854:	1ac0      	subs	r0, r0, r3
    2856:	4152      	adcs	r2, r2
    2858:	0b83      	lsrs	r3, r0, #14
    285a:	428b      	cmp	r3, r1
    285c:	d301      	bcc.n	2862 <__udivsi3+0x52>
    285e:	038b      	lsls	r3, r1, #14
    2860:	1ac0      	subs	r0, r0, r3
    2862:	4152      	adcs	r2, r2
    2864:	0b43      	lsrs	r3, r0, #13
    2866:	428b      	cmp	r3, r1
    2868:	d301      	bcc.n	286e <__udivsi3+0x5e>
    286a:	034b      	lsls	r3, r1, #13
    286c:	1ac0      	subs	r0, r0, r3
    286e:	4152      	adcs	r2, r2
    2870:	0b03      	lsrs	r3, r0, #12
    2872:	428b      	cmp	r3, r1
    2874:	d301      	bcc.n	287a <__udivsi3+0x6a>
    2876:	030b      	lsls	r3, r1, #12
    2878:	1ac0      	subs	r0, r0, r3
    287a:	4152      	adcs	r2, r2
    287c:	0ac3      	lsrs	r3, r0, #11
    287e:	428b      	cmp	r3, r1
    2880:	d301      	bcc.n	2886 <__udivsi3+0x76>
    2882:	02cb      	lsls	r3, r1, #11
    2884:	1ac0      	subs	r0, r0, r3
    2886:	4152      	adcs	r2, r2
    2888:	0a83      	lsrs	r3, r0, #10
    288a:	428b      	cmp	r3, r1
    288c:	d301      	bcc.n	2892 <__udivsi3+0x82>
    288e:	028b      	lsls	r3, r1, #10
    2890:	1ac0      	subs	r0, r0, r3
    2892:	4152      	adcs	r2, r2
    2894:	0a43      	lsrs	r3, r0, #9
    2896:	428b      	cmp	r3, r1
    2898:	d301      	bcc.n	289e <__udivsi3+0x8e>
    289a:	024b      	lsls	r3, r1, #9
    289c:	1ac0      	subs	r0, r0, r3
    289e:	4152      	adcs	r2, r2
    28a0:	0a03      	lsrs	r3, r0, #8
    28a2:	428b      	cmp	r3, r1
    28a4:	d301      	bcc.n	28aa <__udivsi3+0x9a>
    28a6:	020b      	lsls	r3, r1, #8
    28a8:	1ac0      	subs	r0, r0, r3
    28aa:	4152      	adcs	r2, r2
    28ac:	d2cd      	bcs.n	284a <__udivsi3+0x3a>
    28ae:	09c3      	lsrs	r3, r0, #7
    28b0:	428b      	cmp	r3, r1
    28b2:	d301      	bcc.n	28b8 <__udivsi3+0xa8>
    28b4:	01cb      	lsls	r3, r1, #7
    28b6:	1ac0      	subs	r0, r0, r3
    28b8:	4152      	adcs	r2, r2
    28ba:	0983      	lsrs	r3, r0, #6
    28bc:	428b      	cmp	r3, r1
    28be:	d301      	bcc.n	28c4 <__udivsi3+0xb4>
    28c0:	018b      	lsls	r3, r1, #6
    28c2:	1ac0      	subs	r0, r0, r3
    28c4:	4152      	adcs	r2, r2
    28c6:	0943      	lsrs	r3, r0, #5
    28c8:	428b      	cmp	r3, r1
    28ca:	d301      	bcc.n	28d0 <__udivsi3+0xc0>
    28cc:	014b      	lsls	r3, r1, #5
    28ce:	1ac0      	subs	r0, r0, r3
    28d0:	4152      	adcs	r2, r2
    28d2:	0903      	lsrs	r3, r0, #4
    28d4:	428b      	cmp	r3, r1
    28d6:	d301      	bcc.n	28dc <__udivsi3+0xcc>
    28d8:	010b      	lsls	r3, r1, #4
    28da:	1ac0      	subs	r0, r0, r3
    28dc:	4152      	adcs	r2, r2
    28de:	08c3      	lsrs	r3, r0, #3
    28e0:	428b      	cmp	r3, r1
    28e2:	d301      	bcc.n	28e8 <__udivsi3+0xd8>
    28e4:	00cb      	lsls	r3, r1, #3
    28e6:	1ac0      	subs	r0, r0, r3
    28e8:	4152      	adcs	r2, r2
    28ea:	0883      	lsrs	r3, r0, #2
    28ec:	428b      	cmp	r3, r1
    28ee:	d301      	bcc.n	28f4 <__udivsi3+0xe4>
    28f0:	008b      	lsls	r3, r1, #2
    28f2:	1ac0      	subs	r0, r0, r3
    28f4:	4152      	adcs	r2, r2
    28f6:	0843      	lsrs	r3, r0, #1
    28f8:	428b      	cmp	r3, r1
    28fa:	d301      	bcc.n	2900 <__udivsi3+0xf0>
    28fc:	004b      	lsls	r3, r1, #1
    28fe:	1ac0      	subs	r0, r0, r3
    2900:	4152      	adcs	r2, r2
    2902:	1a41      	subs	r1, r0, r1
    2904:	d200      	bcs.n	2908 <__udivsi3+0xf8>
    2906:	4601      	mov	r1, r0
    2908:	4152      	adcs	r2, r2
    290a:	4610      	mov	r0, r2
    290c:	4770      	bx	lr
    290e:	e7ff      	b.n	2910 <__udivsi3+0x100>
    2910:	b501      	push	{r0, lr}
    2912:	2000      	movs	r0, #0
    2914:	f000 f806 	bl	2924 <__aeabi_idiv0>
    2918:	bd02      	pop	{r1, pc}
    291a:	46c0      	nop			; (mov r8, r8)

0000291c <__aeabi_uidivmod>:
    291c:	2900      	cmp	r1, #0
    291e:	d0f7      	beq.n	2910 <__udivsi3+0x100>
    2920:	e776      	b.n	2810 <__udivsi3>
    2922:	4770      	bx	lr

00002924 <__aeabi_idiv0>:
    2924:	4770      	bx	lr
    2926:	46c0      	nop			; (mov r8, r8)

00002928 <exit>:
    2928:	4b08      	ldr	r3, [pc, #32]	; (294c <exit+0x24>)
    292a:	b510      	push	{r4, lr}
    292c:	0004      	movs	r4, r0
    292e:	2b00      	cmp	r3, #0
    2930:	d002      	beq.n	2938 <exit+0x10>
    2932:	2100      	movs	r1, #0
    2934:	e000      	b.n	2938 <exit+0x10>
    2936:	bf00      	nop
    2938:	4b05      	ldr	r3, [pc, #20]	; (2950 <exit+0x28>)
    293a:	6818      	ldr	r0, [r3, #0]
    293c:	6a83      	ldr	r3, [r0, #40]	; 0x28
    293e:	2b00      	cmp	r3, #0
    2940:	d000      	beq.n	2944 <exit+0x1c>
    2942:	4798      	blx	r3
    2944:	0020      	movs	r0, r4
    2946:	f7fd ff85 	bl	854 <_exit>
    294a:	46c0      	nop			; (mov r8, r8)
    294c:	00000000 	.word	0x00000000
    2950:	00003904 	.word	0x00003904

00002954 <__libc_init_array>:
    2954:	b570      	push	{r4, r5, r6, lr}
    2956:	2600      	movs	r6, #0
    2958:	4d0c      	ldr	r5, [pc, #48]	; (298c <__libc_init_array+0x38>)
    295a:	4c0d      	ldr	r4, [pc, #52]	; (2990 <__libc_init_array+0x3c>)
    295c:	1b64      	subs	r4, r4, r5
    295e:	10a4      	asrs	r4, r4, #2
    2960:	42a6      	cmp	r6, r4
    2962:	d109      	bne.n	2978 <__libc_init_array+0x24>
    2964:	2600      	movs	r6, #0
    2966:	f001 f819 	bl	399c <_init>
    296a:	4d0a      	ldr	r5, [pc, #40]	; (2994 <__libc_init_array+0x40>)
    296c:	4c0a      	ldr	r4, [pc, #40]	; (2998 <__libc_init_array+0x44>)
    296e:	1b64      	subs	r4, r4, r5
    2970:	10a4      	asrs	r4, r4, #2
    2972:	42a6      	cmp	r6, r4
    2974:	d105      	bne.n	2982 <__libc_init_array+0x2e>
    2976:	bd70      	pop	{r4, r5, r6, pc}
    2978:	00b3      	lsls	r3, r6, #2
    297a:	58eb      	ldr	r3, [r5, r3]
    297c:	4798      	blx	r3
    297e:	3601      	adds	r6, #1
    2980:	e7ee      	b.n	2960 <__libc_init_array+0xc>
    2982:	00b3      	lsls	r3, r6, #2
    2984:	58eb      	ldr	r3, [r5, r3]
    2986:	4798      	blx	r3
    2988:	3601      	adds	r6, #1
    298a:	e7f2      	b.n	2972 <__libc_init_array+0x1e>
    298c:	000039a8 	.word	0x000039a8
    2990:	000039a8 	.word	0x000039a8
    2994:	000039a8 	.word	0x000039a8
    2998:	000039ac 	.word	0x000039ac

0000299c <malloc>:
    299c:	b510      	push	{r4, lr}
    299e:	4b03      	ldr	r3, [pc, #12]	; (29ac <malloc+0x10>)
    29a0:	0001      	movs	r1, r0
    29a2:	6818      	ldr	r0, [r3, #0]
    29a4:	f000 f86a 	bl	2a7c <_malloc_r>
    29a8:	bd10      	pop	{r4, pc}
    29aa:	46c0      	nop			; (mov r8, r8)
    29ac:	20000074 	.word	0x20000074

000029b0 <free>:
    29b0:	b510      	push	{r4, lr}
    29b2:	4b03      	ldr	r3, [pc, #12]	; (29c0 <free+0x10>)
    29b4:	0001      	movs	r1, r0
    29b6:	6818      	ldr	r0, [r3, #0]
    29b8:	f000 f816 	bl	29e8 <_free_r>
    29bc:	bd10      	pop	{r4, pc}
    29be:	46c0      	nop			; (mov r8, r8)
    29c0:	20000074 	.word	0x20000074

000029c4 <memcpy>:
    29c4:	2300      	movs	r3, #0
    29c6:	b510      	push	{r4, lr}
    29c8:	429a      	cmp	r2, r3
    29ca:	d100      	bne.n	29ce <memcpy+0xa>
    29cc:	bd10      	pop	{r4, pc}
    29ce:	5ccc      	ldrb	r4, [r1, r3]
    29d0:	54c4      	strb	r4, [r0, r3]
    29d2:	3301      	adds	r3, #1
    29d4:	e7f8      	b.n	29c8 <memcpy+0x4>

000029d6 <memset>:
    29d6:	0003      	movs	r3, r0
    29d8:	1882      	adds	r2, r0, r2
    29da:	4293      	cmp	r3, r2
    29dc:	d100      	bne.n	29e0 <memset+0xa>
    29de:	4770      	bx	lr
    29e0:	7019      	strb	r1, [r3, #0]
    29e2:	3301      	adds	r3, #1
    29e4:	e7f9      	b.n	29da <memset+0x4>
	...

000029e8 <_free_r>:
    29e8:	b570      	push	{r4, r5, r6, lr}
    29ea:	0005      	movs	r5, r0
    29ec:	2900      	cmp	r1, #0
    29ee:	d010      	beq.n	2a12 <_free_r+0x2a>
    29f0:	1f0c      	subs	r4, r1, #4
    29f2:	6823      	ldr	r3, [r4, #0]
    29f4:	2b00      	cmp	r3, #0
    29f6:	da00      	bge.n	29fa <_free_r+0x12>
    29f8:	18e4      	adds	r4, r4, r3
    29fa:	0028      	movs	r0, r5
    29fc:	f000 f99f 	bl	2d3e <__malloc_lock>
    2a00:	4a1d      	ldr	r2, [pc, #116]	; (2a78 <_free_r+0x90>)
    2a02:	6813      	ldr	r3, [r2, #0]
    2a04:	2b00      	cmp	r3, #0
    2a06:	d105      	bne.n	2a14 <_free_r+0x2c>
    2a08:	6063      	str	r3, [r4, #4]
    2a0a:	6014      	str	r4, [r2, #0]
    2a0c:	0028      	movs	r0, r5
    2a0e:	f000 f997 	bl	2d40 <__malloc_unlock>
    2a12:	bd70      	pop	{r4, r5, r6, pc}
    2a14:	42a3      	cmp	r3, r4
    2a16:	d909      	bls.n	2a2c <_free_r+0x44>
    2a18:	6821      	ldr	r1, [r4, #0]
    2a1a:	1860      	adds	r0, r4, r1
    2a1c:	4283      	cmp	r3, r0
    2a1e:	d1f3      	bne.n	2a08 <_free_r+0x20>
    2a20:	6818      	ldr	r0, [r3, #0]
    2a22:	685b      	ldr	r3, [r3, #4]
    2a24:	1841      	adds	r1, r0, r1
    2a26:	6021      	str	r1, [r4, #0]
    2a28:	e7ee      	b.n	2a08 <_free_r+0x20>
    2a2a:	0013      	movs	r3, r2
    2a2c:	685a      	ldr	r2, [r3, #4]
    2a2e:	2a00      	cmp	r2, #0
    2a30:	d001      	beq.n	2a36 <_free_r+0x4e>
    2a32:	42a2      	cmp	r2, r4
    2a34:	d9f9      	bls.n	2a2a <_free_r+0x42>
    2a36:	6819      	ldr	r1, [r3, #0]
    2a38:	1858      	adds	r0, r3, r1
    2a3a:	42a0      	cmp	r0, r4
    2a3c:	d10b      	bne.n	2a56 <_free_r+0x6e>
    2a3e:	6820      	ldr	r0, [r4, #0]
    2a40:	1809      	adds	r1, r1, r0
    2a42:	1858      	adds	r0, r3, r1
    2a44:	6019      	str	r1, [r3, #0]
    2a46:	4282      	cmp	r2, r0
    2a48:	d1e0      	bne.n	2a0c <_free_r+0x24>
    2a4a:	6810      	ldr	r0, [r2, #0]
    2a4c:	6852      	ldr	r2, [r2, #4]
    2a4e:	1841      	adds	r1, r0, r1
    2a50:	6019      	str	r1, [r3, #0]
    2a52:	605a      	str	r2, [r3, #4]
    2a54:	e7da      	b.n	2a0c <_free_r+0x24>
    2a56:	42a0      	cmp	r0, r4
    2a58:	d902      	bls.n	2a60 <_free_r+0x78>
    2a5a:	230c      	movs	r3, #12
    2a5c:	602b      	str	r3, [r5, #0]
    2a5e:	e7d5      	b.n	2a0c <_free_r+0x24>
    2a60:	6821      	ldr	r1, [r4, #0]
    2a62:	1860      	adds	r0, r4, r1
    2a64:	4282      	cmp	r2, r0
    2a66:	d103      	bne.n	2a70 <_free_r+0x88>
    2a68:	6810      	ldr	r0, [r2, #0]
    2a6a:	6852      	ldr	r2, [r2, #4]
    2a6c:	1841      	adds	r1, r0, r1
    2a6e:	6021      	str	r1, [r4, #0]
    2a70:	6062      	str	r2, [r4, #4]
    2a72:	605c      	str	r4, [r3, #4]
    2a74:	e7ca      	b.n	2a0c <_free_r+0x24>
    2a76:	46c0      	nop			; (mov r8, r8)
    2a78:	20000614 	.word	0x20000614

00002a7c <_malloc_r>:
    2a7c:	2303      	movs	r3, #3
    2a7e:	b570      	push	{r4, r5, r6, lr}
    2a80:	1ccd      	adds	r5, r1, #3
    2a82:	439d      	bics	r5, r3
    2a84:	3508      	adds	r5, #8
    2a86:	0006      	movs	r6, r0
    2a88:	2d0c      	cmp	r5, #12
    2a8a:	d21e      	bcs.n	2aca <_malloc_r+0x4e>
    2a8c:	250c      	movs	r5, #12
    2a8e:	42a9      	cmp	r1, r5
    2a90:	d81d      	bhi.n	2ace <_malloc_r+0x52>
    2a92:	0030      	movs	r0, r6
    2a94:	f000 f953 	bl	2d3e <__malloc_lock>
    2a98:	4a25      	ldr	r2, [pc, #148]	; (2b30 <_malloc_r+0xb4>)
    2a9a:	6814      	ldr	r4, [r2, #0]
    2a9c:	0021      	movs	r1, r4
    2a9e:	2900      	cmp	r1, #0
    2aa0:	d119      	bne.n	2ad6 <_malloc_r+0x5a>
    2aa2:	4c24      	ldr	r4, [pc, #144]	; (2b34 <_malloc_r+0xb8>)
    2aa4:	6823      	ldr	r3, [r4, #0]
    2aa6:	2b00      	cmp	r3, #0
    2aa8:	d103      	bne.n	2ab2 <_malloc_r+0x36>
    2aaa:	0030      	movs	r0, r6
    2aac:	f000 f85e 	bl	2b6c <_sbrk_r>
    2ab0:	6020      	str	r0, [r4, #0]
    2ab2:	0029      	movs	r1, r5
    2ab4:	0030      	movs	r0, r6
    2ab6:	f000 f859 	bl	2b6c <_sbrk_r>
    2aba:	1c43      	adds	r3, r0, #1
    2abc:	d12c      	bne.n	2b18 <_malloc_r+0x9c>
    2abe:	230c      	movs	r3, #12
    2ac0:	0030      	movs	r0, r6
    2ac2:	6033      	str	r3, [r6, #0]
    2ac4:	f000 f93c 	bl	2d40 <__malloc_unlock>
    2ac8:	e003      	b.n	2ad2 <_malloc_r+0x56>
    2aca:	2d00      	cmp	r5, #0
    2acc:	dadf      	bge.n	2a8e <_malloc_r+0x12>
    2ace:	230c      	movs	r3, #12
    2ad0:	6033      	str	r3, [r6, #0]
    2ad2:	2000      	movs	r0, #0
    2ad4:	bd70      	pop	{r4, r5, r6, pc}
    2ad6:	680b      	ldr	r3, [r1, #0]
    2ad8:	1b5b      	subs	r3, r3, r5
    2ada:	d41a      	bmi.n	2b12 <_malloc_r+0x96>
    2adc:	2b0b      	cmp	r3, #11
    2ade:	d903      	bls.n	2ae8 <_malloc_r+0x6c>
    2ae0:	600b      	str	r3, [r1, #0]
    2ae2:	18cc      	adds	r4, r1, r3
    2ae4:	6025      	str	r5, [r4, #0]
    2ae6:	e003      	b.n	2af0 <_malloc_r+0x74>
    2ae8:	428c      	cmp	r4, r1
    2aea:	d10e      	bne.n	2b0a <_malloc_r+0x8e>
    2aec:	6863      	ldr	r3, [r4, #4]
    2aee:	6013      	str	r3, [r2, #0]
    2af0:	0030      	movs	r0, r6
    2af2:	f000 f925 	bl	2d40 <__malloc_unlock>
    2af6:	0020      	movs	r0, r4
    2af8:	2207      	movs	r2, #7
    2afa:	300b      	adds	r0, #11
    2afc:	1d23      	adds	r3, r4, #4
    2afe:	4390      	bics	r0, r2
    2b00:	1ac3      	subs	r3, r0, r3
    2b02:	d0e7      	beq.n	2ad4 <_malloc_r+0x58>
    2b04:	425a      	negs	r2, r3
    2b06:	50e2      	str	r2, [r4, r3]
    2b08:	e7e4      	b.n	2ad4 <_malloc_r+0x58>
    2b0a:	684b      	ldr	r3, [r1, #4]
    2b0c:	6063      	str	r3, [r4, #4]
    2b0e:	000c      	movs	r4, r1
    2b10:	e7ee      	b.n	2af0 <_malloc_r+0x74>
    2b12:	000c      	movs	r4, r1
    2b14:	6849      	ldr	r1, [r1, #4]
    2b16:	e7c2      	b.n	2a9e <_malloc_r+0x22>
    2b18:	2303      	movs	r3, #3
    2b1a:	1cc4      	adds	r4, r0, #3
    2b1c:	439c      	bics	r4, r3
    2b1e:	42a0      	cmp	r0, r4
    2b20:	d0e0      	beq.n	2ae4 <_malloc_r+0x68>
    2b22:	1a21      	subs	r1, r4, r0
    2b24:	0030      	movs	r0, r6
    2b26:	f000 f821 	bl	2b6c <_sbrk_r>
    2b2a:	1c43      	adds	r3, r0, #1
    2b2c:	d1da      	bne.n	2ae4 <_malloc_r+0x68>
    2b2e:	e7c6      	b.n	2abe <_malloc_r+0x42>
    2b30:	20000614 	.word	0x20000614
    2b34:	20000618 	.word	0x20000618

00002b38 <iprintf>:
    2b38:	b40f      	push	{r0, r1, r2, r3}
    2b3a:	4b0b      	ldr	r3, [pc, #44]	; (2b68 <iprintf+0x30>)
    2b3c:	b513      	push	{r0, r1, r4, lr}
    2b3e:	681c      	ldr	r4, [r3, #0]
    2b40:	2c00      	cmp	r4, #0
    2b42:	d005      	beq.n	2b50 <iprintf+0x18>
    2b44:	69a3      	ldr	r3, [r4, #24]
    2b46:	2b00      	cmp	r3, #0
    2b48:	d102      	bne.n	2b50 <iprintf+0x18>
    2b4a:	0020      	movs	r0, r4
    2b4c:	f000 f862 	bl	2c14 <__sinit>
    2b50:	ab05      	add	r3, sp, #20
    2b52:	9a04      	ldr	r2, [sp, #16]
    2b54:	68a1      	ldr	r1, [r4, #8]
    2b56:	0020      	movs	r0, r4
    2b58:	9301      	str	r3, [sp, #4]
    2b5a:	f000 f919 	bl	2d90 <_vfiprintf_r>
    2b5e:	bc16      	pop	{r1, r2, r4}
    2b60:	bc08      	pop	{r3}
    2b62:	b004      	add	sp, #16
    2b64:	4718      	bx	r3
    2b66:	46c0      	nop			; (mov r8, r8)
    2b68:	20000074 	.word	0x20000074

00002b6c <_sbrk_r>:
    2b6c:	2300      	movs	r3, #0
    2b6e:	b570      	push	{r4, r5, r6, lr}
    2b70:	4c06      	ldr	r4, [pc, #24]	; (2b8c <_sbrk_r+0x20>)
    2b72:	0005      	movs	r5, r0
    2b74:	0008      	movs	r0, r1
    2b76:	6023      	str	r3, [r4, #0]
    2b78:	f7fd fe50 	bl	81c <_sbrk>
    2b7c:	1c43      	adds	r3, r0, #1
    2b7e:	d103      	bne.n	2b88 <_sbrk_r+0x1c>
    2b80:	6823      	ldr	r3, [r4, #0]
    2b82:	2b00      	cmp	r3, #0
    2b84:	d000      	beq.n	2b88 <_sbrk_r+0x1c>
    2b86:	602b      	str	r3, [r5, #0]
    2b88:	bd70      	pop	{r4, r5, r6, pc}
    2b8a:	46c0      	nop			; (mov r8, r8)
    2b8c:	2000061c 	.word	0x2000061c

00002b90 <_cleanup_r>:
    2b90:	b510      	push	{r4, lr}
    2b92:	4902      	ldr	r1, [pc, #8]	; (2b9c <_cleanup_r+0xc>)
    2b94:	f000 f8b2 	bl	2cfc <_fwalk_reent>
    2b98:	bd10      	pop	{r4, pc}
    2b9a:	46c0      	nop			; (mov r8, r8)
    2b9c:	00003669 	.word	0x00003669

00002ba0 <std.isra.0>:
    2ba0:	2300      	movs	r3, #0
    2ba2:	b510      	push	{r4, lr}
    2ba4:	0004      	movs	r4, r0
    2ba6:	6003      	str	r3, [r0, #0]
    2ba8:	6043      	str	r3, [r0, #4]
    2baa:	6083      	str	r3, [r0, #8]
    2bac:	8181      	strh	r1, [r0, #12]
    2bae:	6643      	str	r3, [r0, #100]	; 0x64
    2bb0:	81c2      	strh	r2, [r0, #14]
    2bb2:	6103      	str	r3, [r0, #16]
    2bb4:	6143      	str	r3, [r0, #20]
    2bb6:	6183      	str	r3, [r0, #24]
    2bb8:	0019      	movs	r1, r3
    2bba:	2208      	movs	r2, #8
    2bbc:	305c      	adds	r0, #92	; 0x5c
    2bbe:	f7ff ff0a 	bl	29d6 <memset>
    2bc2:	4b05      	ldr	r3, [pc, #20]	; (2bd8 <std.isra.0+0x38>)
    2bc4:	6224      	str	r4, [r4, #32]
    2bc6:	6263      	str	r3, [r4, #36]	; 0x24
    2bc8:	4b04      	ldr	r3, [pc, #16]	; (2bdc <std.isra.0+0x3c>)
    2bca:	62a3      	str	r3, [r4, #40]	; 0x28
    2bcc:	4b04      	ldr	r3, [pc, #16]	; (2be0 <std.isra.0+0x40>)
    2bce:	62e3      	str	r3, [r4, #44]	; 0x2c
    2bd0:	4b04      	ldr	r3, [pc, #16]	; (2be4 <std.isra.0+0x44>)
    2bd2:	6323      	str	r3, [r4, #48]	; 0x30
    2bd4:	bd10      	pop	{r4, pc}
    2bd6:	46c0      	nop			; (mov r8, r8)
    2bd8:	000032d9 	.word	0x000032d9
    2bdc:	00003301 	.word	0x00003301
    2be0:	00003339 	.word	0x00003339
    2be4:	00003365 	.word	0x00003365

00002be8 <__sfmoreglue>:
    2be8:	b570      	push	{r4, r5, r6, lr}
    2bea:	2568      	movs	r5, #104	; 0x68
    2bec:	1e4a      	subs	r2, r1, #1
    2bee:	4355      	muls	r5, r2
    2bf0:	000e      	movs	r6, r1
    2bf2:	0029      	movs	r1, r5
    2bf4:	3174      	adds	r1, #116	; 0x74
    2bf6:	f7ff ff41 	bl	2a7c <_malloc_r>
    2bfa:	1e04      	subs	r4, r0, #0
    2bfc:	d008      	beq.n	2c10 <__sfmoreglue+0x28>
    2bfe:	2100      	movs	r1, #0
    2c00:	002a      	movs	r2, r5
    2c02:	6001      	str	r1, [r0, #0]
    2c04:	6046      	str	r6, [r0, #4]
    2c06:	300c      	adds	r0, #12
    2c08:	60a0      	str	r0, [r4, #8]
    2c0a:	3268      	adds	r2, #104	; 0x68
    2c0c:	f7ff fee3 	bl	29d6 <memset>
    2c10:	0020      	movs	r0, r4
    2c12:	bd70      	pop	{r4, r5, r6, pc}

00002c14 <__sinit>:
    2c14:	6983      	ldr	r3, [r0, #24]
    2c16:	b513      	push	{r0, r1, r4, lr}
    2c18:	0004      	movs	r4, r0
    2c1a:	2b00      	cmp	r3, #0
    2c1c:	d128      	bne.n	2c70 <__sinit+0x5c>
    2c1e:	6483      	str	r3, [r0, #72]	; 0x48
    2c20:	64c3      	str	r3, [r0, #76]	; 0x4c
    2c22:	6503      	str	r3, [r0, #80]	; 0x50
    2c24:	4b13      	ldr	r3, [pc, #76]	; (2c74 <__sinit+0x60>)
    2c26:	4a14      	ldr	r2, [pc, #80]	; (2c78 <__sinit+0x64>)
    2c28:	681b      	ldr	r3, [r3, #0]
    2c2a:	6282      	str	r2, [r0, #40]	; 0x28
    2c2c:	9301      	str	r3, [sp, #4]
    2c2e:	4298      	cmp	r0, r3
    2c30:	d101      	bne.n	2c36 <__sinit+0x22>
    2c32:	2301      	movs	r3, #1
    2c34:	6183      	str	r3, [r0, #24]
    2c36:	0020      	movs	r0, r4
    2c38:	f000 f820 	bl	2c7c <__sfp>
    2c3c:	6060      	str	r0, [r4, #4]
    2c3e:	0020      	movs	r0, r4
    2c40:	f000 f81c 	bl	2c7c <__sfp>
    2c44:	60a0      	str	r0, [r4, #8]
    2c46:	0020      	movs	r0, r4
    2c48:	f000 f818 	bl	2c7c <__sfp>
    2c4c:	2200      	movs	r2, #0
    2c4e:	60e0      	str	r0, [r4, #12]
    2c50:	2104      	movs	r1, #4
    2c52:	6860      	ldr	r0, [r4, #4]
    2c54:	f7ff ffa4 	bl	2ba0 <std.isra.0>
    2c58:	2201      	movs	r2, #1
    2c5a:	2109      	movs	r1, #9
    2c5c:	68a0      	ldr	r0, [r4, #8]
    2c5e:	f7ff ff9f 	bl	2ba0 <std.isra.0>
    2c62:	2202      	movs	r2, #2
    2c64:	2112      	movs	r1, #18
    2c66:	68e0      	ldr	r0, [r4, #12]
    2c68:	f7ff ff9a 	bl	2ba0 <std.isra.0>
    2c6c:	2301      	movs	r3, #1
    2c6e:	61a3      	str	r3, [r4, #24]
    2c70:	bd13      	pop	{r0, r1, r4, pc}
    2c72:	46c0      	nop			; (mov r8, r8)
    2c74:	00003904 	.word	0x00003904
    2c78:	00002b91 	.word	0x00002b91

00002c7c <__sfp>:
    2c7c:	b5f8      	push	{r3, r4, r5, r6, r7, lr}
    2c7e:	4b1e      	ldr	r3, [pc, #120]	; (2cf8 <__sfp+0x7c>)
    2c80:	0007      	movs	r7, r0
    2c82:	681e      	ldr	r6, [r3, #0]
    2c84:	69b3      	ldr	r3, [r6, #24]
    2c86:	2b00      	cmp	r3, #0
    2c88:	d102      	bne.n	2c90 <__sfp+0x14>
    2c8a:	0030      	movs	r0, r6
    2c8c:	f7ff ffc2 	bl	2c14 <__sinit>
    2c90:	3648      	adds	r6, #72	; 0x48
    2c92:	68b4      	ldr	r4, [r6, #8]
    2c94:	6873      	ldr	r3, [r6, #4]
    2c96:	3b01      	subs	r3, #1
    2c98:	d504      	bpl.n	2ca4 <__sfp+0x28>
    2c9a:	6833      	ldr	r3, [r6, #0]
    2c9c:	2b00      	cmp	r3, #0
    2c9e:	d007      	beq.n	2cb0 <__sfp+0x34>
    2ca0:	6836      	ldr	r6, [r6, #0]
    2ca2:	e7f6      	b.n	2c92 <__sfp+0x16>
    2ca4:	220c      	movs	r2, #12
    2ca6:	5ea5      	ldrsh	r5, [r4, r2]
    2ca8:	2d00      	cmp	r5, #0
    2caa:	d00d      	beq.n	2cc8 <__sfp+0x4c>
    2cac:	3468      	adds	r4, #104	; 0x68
    2cae:	e7f2      	b.n	2c96 <__sfp+0x1a>
    2cb0:	2104      	movs	r1, #4
    2cb2:	0038      	movs	r0, r7
    2cb4:	f7ff ff98 	bl	2be8 <__sfmoreglue>
    2cb8:	6030      	str	r0, [r6, #0]
    2cba:	2800      	cmp	r0, #0
    2cbc:	d1f0      	bne.n	2ca0 <__sfp+0x24>
    2cbe:	230c      	movs	r3, #12
    2cc0:	0004      	movs	r4, r0
    2cc2:	603b      	str	r3, [r7, #0]
    2cc4:	0020      	movs	r0, r4
    2cc6:	bdf8      	pop	{r3, r4, r5, r6, r7, pc}
    2cc8:	2301      	movs	r3, #1
    2cca:	0020      	movs	r0, r4
    2ccc:	425b      	negs	r3, r3
    2cce:	81e3      	strh	r3, [r4, #14]
    2cd0:	3302      	adds	r3, #2
    2cd2:	81a3      	strh	r3, [r4, #12]
    2cd4:	6665      	str	r5, [r4, #100]	; 0x64
    2cd6:	6025      	str	r5, [r4, #0]
    2cd8:	60a5      	str	r5, [r4, #8]
    2cda:	6065      	str	r5, [r4, #4]
    2cdc:	6125      	str	r5, [r4, #16]
    2cde:	6165      	str	r5, [r4, #20]
    2ce0:	61a5      	str	r5, [r4, #24]
    2ce2:	2208      	movs	r2, #8
    2ce4:	0029      	movs	r1, r5
    2ce6:	305c      	adds	r0, #92	; 0x5c
    2ce8:	f7ff fe75 	bl	29d6 <memset>
    2cec:	6365      	str	r5, [r4, #52]	; 0x34
    2cee:	63a5      	str	r5, [r4, #56]	; 0x38
    2cf0:	64a5      	str	r5, [r4, #72]	; 0x48
    2cf2:	64e5      	str	r5, [r4, #76]	; 0x4c
    2cf4:	e7e6      	b.n	2cc4 <__sfp+0x48>
    2cf6:	46c0      	nop			; (mov r8, r8)
    2cf8:	00003904 	.word	0x00003904

00002cfc <_fwalk_reent>:
    2cfc:	b5f7      	push	{r0, r1, r2, r4, r5, r6, r7, lr}
    2cfe:	0004      	movs	r4, r0
    2d00:	0007      	movs	r7, r0
    2d02:	2600      	movs	r6, #0
    2d04:	9101      	str	r1, [sp, #4]
    2d06:	3448      	adds	r4, #72	; 0x48
    2d08:	2c00      	cmp	r4, #0
    2d0a:	d101      	bne.n	2d10 <_fwalk_reent+0x14>
    2d0c:	0030      	movs	r0, r6
    2d0e:	bdfe      	pop	{r1, r2, r3, r4, r5, r6, r7, pc}
    2d10:	6863      	ldr	r3, [r4, #4]
    2d12:	68a5      	ldr	r5, [r4, #8]
    2d14:	9300      	str	r3, [sp, #0]
    2d16:	9b00      	ldr	r3, [sp, #0]
    2d18:	3b01      	subs	r3, #1
    2d1a:	9300      	str	r3, [sp, #0]
    2d1c:	d501      	bpl.n	2d22 <_fwalk_reent+0x26>
    2d1e:	6824      	ldr	r4, [r4, #0]
    2d20:	e7f2      	b.n	2d08 <_fwalk_reent+0xc>
    2d22:	89ab      	ldrh	r3, [r5, #12]
    2d24:	2b01      	cmp	r3, #1
    2d26:	d908      	bls.n	2d3a <_fwalk_reent+0x3e>
    2d28:	220e      	movs	r2, #14
    2d2a:	5eab      	ldrsh	r3, [r5, r2]
    2d2c:	3301      	adds	r3, #1
    2d2e:	d004      	beq.n	2d3a <_fwalk_reent+0x3e>
    2d30:	0029      	movs	r1, r5
    2d32:	0038      	movs	r0, r7
    2d34:	9b01      	ldr	r3, [sp, #4]
    2d36:	4798      	blx	r3
    2d38:	4306      	orrs	r6, r0
    2d3a:	3568      	adds	r5, #104	; 0x68
    2d3c:	e7eb      	b.n	2d16 <_fwalk_reent+0x1a>

00002d3e <__malloc_lock>:
    2d3e:	4770      	bx	lr

00002d40 <__malloc_unlock>:
    2d40:	4770      	bx	lr

00002d42 <__sfputc_r>:
    2d42:	6893      	ldr	r3, [r2, #8]
    2d44:	b510      	push	{r4, lr}
    2d46:	3b01      	subs	r3, #1
    2d48:	6093      	str	r3, [r2, #8]
    2d4a:	2b00      	cmp	r3, #0
    2d4c:	da05      	bge.n	2d5a <__sfputc_r+0x18>
    2d4e:	6994      	ldr	r4, [r2, #24]
    2d50:	42a3      	cmp	r3, r4
    2d52:	db08      	blt.n	2d66 <__sfputc_r+0x24>
    2d54:	b2cb      	uxtb	r3, r1
    2d56:	2b0a      	cmp	r3, #10
    2d58:	d005      	beq.n	2d66 <__sfputc_r+0x24>
    2d5a:	6813      	ldr	r3, [r2, #0]
    2d5c:	1c58      	adds	r0, r3, #1
    2d5e:	6010      	str	r0, [r2, #0]
    2d60:	7019      	strb	r1, [r3, #0]
    2d62:	b2c8      	uxtb	r0, r1
    2d64:	bd10      	pop	{r4, pc}
    2d66:	f000 fb03 	bl	3370 <__swbuf_r>
    2d6a:	e7fb      	b.n	2d64 <__sfputc_r+0x22>

00002d6c <__sfputs_r>:
    2d6c:	b5f8      	push	{r3, r4, r5, r6, r7, lr}
    2d6e:	0006      	movs	r6, r0
    2d70:	000f      	movs	r7, r1
    2d72:	0014      	movs	r4, r2
    2d74:	18d5      	adds	r5, r2, r3
    2d76:	42ac      	cmp	r4, r5
    2d78:	d101      	bne.n	2d7e <__sfputs_r+0x12>
    2d7a:	2000      	movs	r0, #0
    2d7c:	e007      	b.n	2d8e <__sfputs_r+0x22>
    2d7e:	7821      	ldrb	r1, [r4, #0]
    2d80:	003a      	movs	r2, r7
    2d82:	0030      	movs	r0, r6
    2d84:	f7ff ffdd 	bl	2d42 <__sfputc_r>
    2d88:	3401      	adds	r4, #1
    2d8a:	1c43      	adds	r3, r0, #1
    2d8c:	d1f3      	bne.n	2d76 <__sfputs_r+0xa>
    2d8e:	bdf8      	pop	{r3, r4, r5, r6, r7, pc}

00002d90 <_vfiprintf_r>:
    2d90:	b5f0      	push	{r4, r5, r6, r7, lr}
    2d92:	b09f      	sub	sp, #124	; 0x7c
    2d94:	0006      	movs	r6, r0
    2d96:	000f      	movs	r7, r1
    2d98:	0014      	movs	r4, r2
    2d9a:	9305      	str	r3, [sp, #20]
    2d9c:	2800      	cmp	r0, #0
    2d9e:	d004      	beq.n	2daa <_vfiprintf_r+0x1a>
    2da0:	6983      	ldr	r3, [r0, #24]
    2da2:	2b00      	cmp	r3, #0
    2da4:	d101      	bne.n	2daa <_vfiprintf_r+0x1a>
    2da6:	f7ff ff35 	bl	2c14 <__sinit>
    2daa:	4b7f      	ldr	r3, [pc, #508]	; (2fa8 <_vfiprintf_r+0x218>)
    2dac:	429f      	cmp	r7, r3
    2dae:	d15c      	bne.n	2e6a <_vfiprintf_r+0xda>
    2db0:	6877      	ldr	r7, [r6, #4]
    2db2:	89bb      	ldrh	r3, [r7, #12]
    2db4:	071b      	lsls	r3, r3, #28
    2db6:	d562      	bpl.n	2e7e <_vfiprintf_r+0xee>
    2db8:	693b      	ldr	r3, [r7, #16]
    2dba:	2b00      	cmp	r3, #0
    2dbc:	d05f      	beq.n	2e7e <_vfiprintf_r+0xee>
    2dbe:	2300      	movs	r3, #0
    2dc0:	ad06      	add	r5, sp, #24
    2dc2:	616b      	str	r3, [r5, #20]
    2dc4:	3320      	adds	r3, #32
    2dc6:	766b      	strb	r3, [r5, #25]
    2dc8:	3310      	adds	r3, #16
    2dca:	76ab      	strb	r3, [r5, #26]
    2dcc:	9402      	str	r4, [sp, #8]
    2dce:	9c02      	ldr	r4, [sp, #8]
    2dd0:	7823      	ldrb	r3, [r4, #0]
    2dd2:	2b00      	cmp	r3, #0
    2dd4:	d15d      	bne.n	2e92 <_vfiprintf_r+0x102>
    2dd6:	9b02      	ldr	r3, [sp, #8]
    2dd8:	1ae3      	subs	r3, r4, r3
    2dda:	9304      	str	r3, [sp, #16]
    2ddc:	d00d      	beq.n	2dfa <_vfiprintf_r+0x6a>
    2dde:	9b04      	ldr	r3, [sp, #16]
    2de0:	9a02      	ldr	r2, [sp, #8]
    2de2:	0039      	movs	r1, r7
    2de4:	0030      	movs	r0, r6
    2de6:	f7ff ffc1 	bl	2d6c <__sfputs_r>
    2dea:	1c43      	adds	r3, r0, #1
    2dec:	d100      	bne.n	2df0 <_vfiprintf_r+0x60>
    2dee:	e0cc      	b.n	2f8a <_vfiprintf_r+0x1fa>
    2df0:	696a      	ldr	r2, [r5, #20]
    2df2:	9b04      	ldr	r3, [sp, #16]
    2df4:	4694      	mov	ip, r2
    2df6:	4463      	add	r3, ip
    2df8:	616b      	str	r3, [r5, #20]
    2dfa:	7823      	ldrb	r3, [r4, #0]
    2dfc:	2b00      	cmp	r3, #0
    2dfe:	d100      	bne.n	2e02 <_vfiprintf_r+0x72>
    2e00:	e0c3      	b.n	2f8a <_vfiprintf_r+0x1fa>
    2e02:	2201      	movs	r2, #1
    2e04:	2300      	movs	r3, #0
    2e06:	4252      	negs	r2, r2
    2e08:	606a      	str	r2, [r5, #4]
    2e0a:	a902      	add	r1, sp, #8
    2e0c:	3254      	adds	r2, #84	; 0x54
    2e0e:	1852      	adds	r2, r2, r1
    2e10:	3401      	adds	r4, #1
    2e12:	602b      	str	r3, [r5, #0]
    2e14:	60eb      	str	r3, [r5, #12]
    2e16:	60ab      	str	r3, [r5, #8]
    2e18:	7013      	strb	r3, [r2, #0]
    2e1a:	65ab      	str	r3, [r5, #88]	; 0x58
    2e1c:	7821      	ldrb	r1, [r4, #0]
    2e1e:	2205      	movs	r2, #5
    2e20:	4862      	ldr	r0, [pc, #392]	; (2fac <_vfiprintf_r+0x21c>)
    2e22:	f000 fccd 	bl	37c0 <memchr>
    2e26:	1c63      	adds	r3, r4, #1
    2e28:	469c      	mov	ip, r3
    2e2a:	2800      	cmp	r0, #0
    2e2c:	d135      	bne.n	2e9a <_vfiprintf_r+0x10a>
    2e2e:	6829      	ldr	r1, [r5, #0]
    2e30:	06cb      	lsls	r3, r1, #27
    2e32:	d504      	bpl.n	2e3e <_vfiprintf_r+0xae>
    2e34:	2353      	movs	r3, #83	; 0x53
    2e36:	aa02      	add	r2, sp, #8
    2e38:	3020      	adds	r0, #32
    2e3a:	189b      	adds	r3, r3, r2
    2e3c:	7018      	strb	r0, [r3, #0]
    2e3e:	070b      	lsls	r3, r1, #28
    2e40:	d504      	bpl.n	2e4c <_vfiprintf_r+0xbc>
    2e42:	2353      	movs	r3, #83	; 0x53
    2e44:	202b      	movs	r0, #43	; 0x2b
    2e46:	aa02      	add	r2, sp, #8
    2e48:	189b      	adds	r3, r3, r2
    2e4a:	7018      	strb	r0, [r3, #0]
    2e4c:	7823      	ldrb	r3, [r4, #0]
    2e4e:	2b2a      	cmp	r3, #42	; 0x2a
    2e50:	d02c      	beq.n	2eac <_vfiprintf_r+0x11c>
    2e52:	2000      	movs	r0, #0
    2e54:	210a      	movs	r1, #10
    2e56:	9b09      	ldr	r3, [sp, #36]	; 0x24
    2e58:	7822      	ldrb	r2, [r4, #0]
    2e5a:	3a30      	subs	r2, #48	; 0x30
    2e5c:	2a09      	cmp	r2, #9
    2e5e:	d800      	bhi.n	2e62 <_vfiprintf_r+0xd2>
    2e60:	e06b      	b.n	2f3a <_vfiprintf_r+0x1aa>
    2e62:	2800      	cmp	r0, #0
    2e64:	d02a      	beq.n	2ebc <_vfiprintf_r+0x12c>
    2e66:	9309      	str	r3, [sp, #36]	; 0x24
    2e68:	e028      	b.n	2ebc <_vfiprintf_r+0x12c>
    2e6a:	4b51      	ldr	r3, [pc, #324]	; (2fb0 <_vfiprintf_r+0x220>)
    2e6c:	429f      	cmp	r7, r3
    2e6e:	d101      	bne.n	2e74 <_vfiprintf_r+0xe4>
    2e70:	68b7      	ldr	r7, [r6, #8]
    2e72:	e79e      	b.n	2db2 <_vfiprintf_r+0x22>
    2e74:	4b4f      	ldr	r3, [pc, #316]	; (2fb4 <_vfiprintf_r+0x224>)
    2e76:	429f      	cmp	r7, r3
    2e78:	d19b      	bne.n	2db2 <_vfiprintf_r+0x22>
    2e7a:	68f7      	ldr	r7, [r6, #12]
    2e7c:	e799      	b.n	2db2 <_vfiprintf_r+0x22>
    2e7e:	0039      	movs	r1, r7
    2e80:	0030      	movs	r0, r6
    2e82:	f000 fadf 	bl	3444 <__swsetup_r>
    2e86:	2800      	cmp	r0, #0
    2e88:	d099      	beq.n	2dbe <_vfiprintf_r+0x2e>
    2e8a:	2001      	movs	r0, #1
    2e8c:	4240      	negs	r0, r0
    2e8e:	b01f      	add	sp, #124	; 0x7c
    2e90:	bdf0      	pop	{r4, r5, r6, r7, pc}
    2e92:	2b25      	cmp	r3, #37	; 0x25
    2e94:	d09f      	beq.n	2dd6 <_vfiprintf_r+0x46>
    2e96:	3401      	adds	r4, #1
    2e98:	e79a      	b.n	2dd0 <_vfiprintf_r+0x40>
    2e9a:	4b44      	ldr	r3, [pc, #272]	; (2fac <_vfiprintf_r+0x21c>)
    2e9c:	6829      	ldr	r1, [r5, #0]
    2e9e:	1ac0      	subs	r0, r0, r3
    2ea0:	2301      	movs	r3, #1
    2ea2:	4083      	lsls	r3, r0
    2ea4:	430b      	orrs	r3, r1
    2ea6:	602b      	str	r3, [r5, #0]
    2ea8:	4664      	mov	r4, ip
    2eaa:	e7b7      	b.n	2e1c <_vfiprintf_r+0x8c>
    2eac:	9b05      	ldr	r3, [sp, #20]
    2eae:	1d18      	adds	r0, r3, #4
    2eb0:	681b      	ldr	r3, [r3, #0]
    2eb2:	9005      	str	r0, [sp, #20]
    2eb4:	2b00      	cmp	r3, #0
    2eb6:	db3a      	blt.n	2f2e <_vfiprintf_r+0x19e>
    2eb8:	9309      	str	r3, [sp, #36]	; 0x24
    2eba:	4664      	mov	r4, ip
    2ebc:	7823      	ldrb	r3, [r4, #0]
    2ebe:	2b2e      	cmp	r3, #46	; 0x2e
    2ec0:	d10b      	bne.n	2eda <_vfiprintf_r+0x14a>
    2ec2:	7863      	ldrb	r3, [r4, #1]
    2ec4:	1c62      	adds	r2, r4, #1
    2ec6:	2b2a      	cmp	r3, #42	; 0x2a
    2ec8:	d13f      	bne.n	2f4a <_vfiprintf_r+0x1ba>
    2eca:	9b05      	ldr	r3, [sp, #20]
    2ecc:	3402      	adds	r4, #2
    2ece:	1d1a      	adds	r2, r3, #4
    2ed0:	681b      	ldr	r3, [r3, #0]
    2ed2:	9205      	str	r2, [sp, #20]
    2ed4:	2b00      	cmp	r3, #0
    2ed6:	db35      	blt.n	2f44 <_vfiprintf_r+0x1b4>
    2ed8:	9307      	str	r3, [sp, #28]
    2eda:	7821      	ldrb	r1, [r4, #0]
    2edc:	2203      	movs	r2, #3
    2ede:	4836      	ldr	r0, [pc, #216]	; (2fb8 <_vfiprintf_r+0x228>)
    2ee0:	f000 fc6e 	bl	37c0 <memchr>
    2ee4:	2800      	cmp	r0, #0
    2ee6:	d007      	beq.n	2ef8 <_vfiprintf_r+0x168>
    2ee8:	4b33      	ldr	r3, [pc, #204]	; (2fb8 <_vfiprintf_r+0x228>)
    2eea:	682a      	ldr	r2, [r5, #0]
    2eec:	1ac0      	subs	r0, r0, r3
    2eee:	2340      	movs	r3, #64	; 0x40
    2ef0:	4083      	lsls	r3, r0
    2ef2:	4313      	orrs	r3, r2
    2ef4:	602b      	str	r3, [r5, #0]
    2ef6:	3401      	adds	r4, #1
    2ef8:	7821      	ldrb	r1, [r4, #0]
    2efa:	1c63      	adds	r3, r4, #1
    2efc:	2206      	movs	r2, #6
    2efe:	482f      	ldr	r0, [pc, #188]	; (2fbc <_vfiprintf_r+0x22c>)
    2f00:	9302      	str	r3, [sp, #8]
    2f02:	7629      	strb	r1, [r5, #24]
    2f04:	f000 fc5c 	bl	37c0 <memchr>
    2f08:	2800      	cmp	r0, #0
    2f0a:	d044      	beq.n	2f96 <_vfiprintf_r+0x206>
    2f0c:	4b2c      	ldr	r3, [pc, #176]	; (2fc0 <_vfiprintf_r+0x230>)
    2f0e:	2b00      	cmp	r3, #0
    2f10:	d12f      	bne.n	2f72 <_vfiprintf_r+0x1e2>
    2f12:	6829      	ldr	r1, [r5, #0]
    2f14:	9b05      	ldr	r3, [sp, #20]
    2f16:	2207      	movs	r2, #7
    2f18:	05c9      	lsls	r1, r1, #23
    2f1a:	d528      	bpl.n	2f6e <_vfiprintf_r+0x1de>
    2f1c:	189b      	adds	r3, r3, r2
    2f1e:	4393      	bics	r3, r2
    2f20:	3308      	adds	r3, #8
    2f22:	9305      	str	r3, [sp, #20]
    2f24:	696b      	ldr	r3, [r5, #20]
    2f26:	9a03      	ldr	r2, [sp, #12]
    2f28:	189b      	adds	r3, r3, r2
    2f2a:	616b      	str	r3, [r5, #20]
    2f2c:	e74f      	b.n	2dce <_vfiprintf_r+0x3e>
    2f2e:	425b      	negs	r3, r3
    2f30:	60eb      	str	r3, [r5, #12]
    2f32:	2302      	movs	r3, #2
    2f34:	430b      	orrs	r3, r1
    2f36:	602b      	str	r3, [r5, #0]
    2f38:	e7bf      	b.n	2eba <_vfiprintf_r+0x12a>
    2f3a:	434b      	muls	r3, r1
    2f3c:	3401      	adds	r4, #1
    2f3e:	189b      	adds	r3, r3, r2
    2f40:	2001      	movs	r0, #1
    2f42:	e789      	b.n	2e58 <_vfiprintf_r+0xc8>
    2f44:	2301      	movs	r3, #1
    2f46:	425b      	negs	r3, r3
    2f48:	e7c6      	b.n	2ed8 <_vfiprintf_r+0x148>
    2f4a:	2300      	movs	r3, #0
    2f4c:	0014      	movs	r4, r2
    2f4e:	200a      	movs	r0, #10
    2f50:	001a      	movs	r2, r3
    2f52:	606b      	str	r3, [r5, #4]
    2f54:	7821      	ldrb	r1, [r4, #0]
    2f56:	3930      	subs	r1, #48	; 0x30
    2f58:	2909      	cmp	r1, #9
    2f5a:	d903      	bls.n	2f64 <_vfiprintf_r+0x1d4>
    2f5c:	2b00      	cmp	r3, #0
    2f5e:	d0bc      	beq.n	2eda <_vfiprintf_r+0x14a>
    2f60:	9207      	str	r2, [sp, #28]
    2f62:	e7ba      	b.n	2eda <_vfiprintf_r+0x14a>
    2f64:	4342      	muls	r2, r0
    2f66:	3401      	adds	r4, #1
    2f68:	1852      	adds	r2, r2, r1
    2f6a:	2301      	movs	r3, #1
    2f6c:	e7f2      	b.n	2f54 <_vfiprintf_r+0x1c4>
    2f6e:	3307      	adds	r3, #7
    2f70:	e7d5      	b.n	2f1e <_vfiprintf_r+0x18e>
    2f72:	ab05      	add	r3, sp, #20
    2f74:	9300      	str	r3, [sp, #0]
    2f76:	003a      	movs	r2, r7
    2f78:	4b12      	ldr	r3, [pc, #72]	; (2fc4 <_vfiprintf_r+0x234>)
    2f7a:	0029      	movs	r1, r5
    2f7c:	0030      	movs	r0, r6
    2f7e:	e000      	b.n	2f82 <_vfiprintf_r+0x1f2>
    2f80:	bf00      	nop
    2f82:	9003      	str	r0, [sp, #12]
    2f84:	9b03      	ldr	r3, [sp, #12]
    2f86:	3301      	adds	r3, #1
    2f88:	d1cc      	bne.n	2f24 <_vfiprintf_r+0x194>
    2f8a:	89bb      	ldrh	r3, [r7, #12]
    2f8c:	065b      	lsls	r3, r3, #25
    2f8e:	d500      	bpl.n	2f92 <_vfiprintf_r+0x202>
    2f90:	e77b      	b.n	2e8a <_vfiprintf_r+0xfa>
    2f92:	980b      	ldr	r0, [sp, #44]	; 0x2c
    2f94:	e77b      	b.n	2e8e <_vfiprintf_r+0xfe>
    2f96:	ab05      	add	r3, sp, #20
    2f98:	9300      	str	r3, [sp, #0]
    2f9a:	003a      	movs	r2, r7
    2f9c:	4b09      	ldr	r3, [pc, #36]	; (2fc4 <_vfiprintf_r+0x234>)
    2f9e:	0029      	movs	r1, r5
    2fa0:	0030      	movs	r0, r6
    2fa2:	f000 f87f 	bl	30a4 <_printf_i>
    2fa6:	e7ec      	b.n	2f82 <_vfiprintf_r+0x1f2>
    2fa8:	00003928 	.word	0x00003928
    2fac:	00003968 	.word	0x00003968
    2fb0:	00003948 	.word	0x00003948
    2fb4:	00003908 	.word	0x00003908
    2fb8:	0000396e 	.word	0x0000396e
    2fbc:	00003972 	.word	0x00003972
    2fc0:	00000000 	.word	0x00000000
    2fc4:	00002d6d 	.word	0x00002d6d

00002fc8 <_printf_common>:
    2fc8:	b5f7      	push	{r0, r1, r2, r4, r5, r6, r7, lr}
    2fca:	0015      	movs	r5, r2
    2fcc:	9301      	str	r3, [sp, #4]
    2fce:	688a      	ldr	r2, [r1, #8]
    2fd0:	690b      	ldr	r3, [r1, #16]
    2fd2:	9000      	str	r0, [sp, #0]
    2fd4:	000c      	movs	r4, r1
    2fd6:	4293      	cmp	r3, r2
    2fd8:	da00      	bge.n	2fdc <_printf_common+0x14>
    2fda:	0013      	movs	r3, r2
    2fdc:	0022      	movs	r2, r4
    2fde:	602b      	str	r3, [r5, #0]
    2fe0:	3243      	adds	r2, #67	; 0x43
    2fe2:	7812      	ldrb	r2, [r2, #0]
    2fe4:	2a00      	cmp	r2, #0
    2fe6:	d001      	beq.n	2fec <_printf_common+0x24>
    2fe8:	3301      	adds	r3, #1
    2fea:	602b      	str	r3, [r5, #0]
    2fec:	6823      	ldr	r3, [r4, #0]
    2fee:	069b      	lsls	r3, r3, #26
    2ff0:	d502      	bpl.n	2ff8 <_printf_common+0x30>
    2ff2:	682b      	ldr	r3, [r5, #0]
    2ff4:	3302      	adds	r3, #2
    2ff6:	602b      	str	r3, [r5, #0]
    2ff8:	2706      	movs	r7, #6
    2ffa:	6823      	ldr	r3, [r4, #0]
    2ffc:	401f      	ands	r7, r3
    2ffe:	d027      	beq.n	3050 <_printf_common+0x88>
    3000:	0023      	movs	r3, r4
    3002:	3343      	adds	r3, #67	; 0x43
    3004:	781b      	ldrb	r3, [r3, #0]
    3006:	1e5a      	subs	r2, r3, #1
    3008:	4193      	sbcs	r3, r2
    300a:	6822      	ldr	r2, [r4, #0]
    300c:	0692      	lsls	r2, r2, #26
    300e:	d430      	bmi.n	3072 <_printf_common+0xaa>
    3010:	0022      	movs	r2, r4
    3012:	9901      	ldr	r1, [sp, #4]
    3014:	3243      	adds	r2, #67	; 0x43
    3016:	9800      	ldr	r0, [sp, #0]
    3018:	9e08      	ldr	r6, [sp, #32]
    301a:	47b0      	blx	r6
    301c:	1c43      	adds	r3, r0, #1
    301e:	d025      	beq.n	306c <_printf_common+0xa4>
    3020:	2306      	movs	r3, #6
    3022:	6820      	ldr	r0, [r4, #0]
    3024:	682a      	ldr	r2, [r5, #0]
    3026:	68e1      	ldr	r1, [r4, #12]
    3028:	4003      	ands	r3, r0
    302a:	2500      	movs	r5, #0
    302c:	2b04      	cmp	r3, #4
    302e:	d103      	bne.n	3038 <_printf_common+0x70>
    3030:	1a8d      	subs	r5, r1, r2
    3032:	43eb      	mvns	r3, r5
    3034:	17db      	asrs	r3, r3, #31
    3036:	401d      	ands	r5, r3
    3038:	68a3      	ldr	r3, [r4, #8]
    303a:	6922      	ldr	r2, [r4, #16]
    303c:	4293      	cmp	r3, r2
    303e:	dd01      	ble.n	3044 <_printf_common+0x7c>
    3040:	1a9b      	subs	r3, r3, r2
    3042:	18ed      	adds	r5, r5, r3
    3044:	2700      	movs	r7, #0
    3046:	42bd      	cmp	r5, r7
    3048:	d120      	bne.n	308c <_printf_common+0xc4>
    304a:	2000      	movs	r0, #0
    304c:	e010      	b.n	3070 <_printf_common+0xa8>
    304e:	3701      	adds	r7, #1
    3050:	68e3      	ldr	r3, [r4, #12]
    3052:	682a      	ldr	r2, [r5, #0]
    3054:	1a9b      	subs	r3, r3, r2
    3056:	429f      	cmp	r7, r3
    3058:	dad2      	bge.n	3000 <_printf_common+0x38>
    305a:	0022      	movs	r2, r4
    305c:	2301      	movs	r3, #1
    305e:	3219      	adds	r2, #25
    3060:	9901      	ldr	r1, [sp, #4]
    3062:	9800      	ldr	r0, [sp, #0]
    3064:	9e08      	ldr	r6, [sp, #32]
    3066:	47b0      	blx	r6
    3068:	1c43      	adds	r3, r0, #1
    306a:	d1f0      	bne.n	304e <_printf_common+0x86>
    306c:	2001      	movs	r0, #1
    306e:	4240      	negs	r0, r0
    3070:	bdfe      	pop	{r1, r2, r3, r4, r5, r6, r7, pc}
    3072:	2030      	movs	r0, #48	; 0x30
    3074:	18e1      	adds	r1, r4, r3
    3076:	3143      	adds	r1, #67	; 0x43
    3078:	7008      	strb	r0, [r1, #0]
    307a:	0021      	movs	r1, r4
    307c:	1c5a      	adds	r2, r3, #1
    307e:	3145      	adds	r1, #69	; 0x45
    3080:	7809      	ldrb	r1, [r1, #0]
    3082:	18a2      	adds	r2, r4, r2
    3084:	3243      	adds	r2, #67	; 0x43
    3086:	3302      	adds	r3, #2
    3088:	7011      	strb	r1, [r2, #0]
    308a:	e7c1      	b.n	3010 <_printf_common+0x48>
    308c:	0022      	movs	r2, r4
    308e:	2301      	movs	r3, #1
    3090:	321a      	adds	r2, #26
    3092:	9901      	ldr	r1, [sp, #4]
    3094:	9800      	ldr	r0, [sp, #0]
    3096:	9e08      	ldr	r6, [sp, #32]
    3098:	47b0      	blx	r6
    309a:	1c43      	adds	r3, r0, #1
    309c:	d0e6      	beq.n	306c <_printf_common+0xa4>
    309e:	3701      	adds	r7, #1
    30a0:	e7d1      	b.n	3046 <_printf_common+0x7e>
	...

000030a4 <_printf_i>:
    30a4:	b5f0      	push	{r4, r5, r6, r7, lr}
    30a6:	b08b      	sub	sp, #44	; 0x2c
    30a8:	9206      	str	r2, [sp, #24]
    30aa:	000a      	movs	r2, r1
    30ac:	3243      	adds	r2, #67	; 0x43
    30ae:	9307      	str	r3, [sp, #28]
    30b0:	9005      	str	r0, [sp, #20]
    30b2:	9204      	str	r2, [sp, #16]
    30b4:	7e0a      	ldrb	r2, [r1, #24]
    30b6:	000c      	movs	r4, r1
    30b8:	9b10      	ldr	r3, [sp, #64]	; 0x40
    30ba:	2a6e      	cmp	r2, #110	; 0x6e
    30bc:	d100      	bne.n	30c0 <_printf_i+0x1c>
    30be:	e08f      	b.n	31e0 <_printf_i+0x13c>
    30c0:	d817      	bhi.n	30f2 <_printf_i+0x4e>
    30c2:	2a63      	cmp	r2, #99	; 0x63
    30c4:	d02c      	beq.n	3120 <_printf_i+0x7c>
    30c6:	d808      	bhi.n	30da <_printf_i+0x36>
    30c8:	2a00      	cmp	r2, #0
    30ca:	d100      	bne.n	30ce <_printf_i+0x2a>
    30cc:	e099      	b.n	3202 <_printf_i+0x15e>
    30ce:	2a58      	cmp	r2, #88	; 0x58
    30d0:	d054      	beq.n	317c <_printf_i+0xd8>
    30d2:	0026      	movs	r6, r4
    30d4:	3642      	adds	r6, #66	; 0x42
    30d6:	7032      	strb	r2, [r6, #0]
    30d8:	e029      	b.n	312e <_printf_i+0x8a>
    30da:	2a64      	cmp	r2, #100	; 0x64
    30dc:	d001      	beq.n	30e2 <_printf_i+0x3e>
    30de:	2a69      	cmp	r2, #105	; 0x69
    30e0:	d1f7      	bne.n	30d2 <_printf_i+0x2e>
    30e2:	6821      	ldr	r1, [r4, #0]
    30e4:	681a      	ldr	r2, [r3, #0]
    30e6:	0608      	lsls	r0, r1, #24
    30e8:	d523      	bpl.n	3132 <_printf_i+0x8e>
    30ea:	1d11      	adds	r1, r2, #4
    30ec:	6019      	str	r1, [r3, #0]
    30ee:	6815      	ldr	r5, [r2, #0]
    30f0:	e025      	b.n	313e <_printf_i+0x9a>
    30f2:	2a73      	cmp	r2, #115	; 0x73
    30f4:	d100      	bne.n	30f8 <_printf_i+0x54>
    30f6:	e088      	b.n	320a <_printf_i+0x166>
    30f8:	d808      	bhi.n	310c <_printf_i+0x68>
    30fa:	2a6f      	cmp	r2, #111	; 0x6f
    30fc:	d029      	beq.n	3152 <_printf_i+0xae>
    30fe:	2a70      	cmp	r2, #112	; 0x70
    3100:	d1e7      	bne.n	30d2 <_printf_i+0x2e>
    3102:	2220      	movs	r2, #32
    3104:	6809      	ldr	r1, [r1, #0]
    3106:	430a      	orrs	r2, r1
    3108:	6022      	str	r2, [r4, #0]
    310a:	e003      	b.n	3114 <_printf_i+0x70>
    310c:	2a75      	cmp	r2, #117	; 0x75
    310e:	d020      	beq.n	3152 <_printf_i+0xae>
    3110:	2a78      	cmp	r2, #120	; 0x78
    3112:	d1de      	bne.n	30d2 <_printf_i+0x2e>
    3114:	0022      	movs	r2, r4
    3116:	2178      	movs	r1, #120	; 0x78
    3118:	3245      	adds	r2, #69	; 0x45
    311a:	7011      	strb	r1, [r2, #0]
    311c:	4a6c      	ldr	r2, [pc, #432]	; (32d0 <_printf_i+0x22c>)
    311e:	e030      	b.n	3182 <_printf_i+0xde>
    3120:	000e      	movs	r6, r1
    3122:	681a      	ldr	r2, [r3, #0]
    3124:	3642      	adds	r6, #66	; 0x42
    3126:	1d11      	adds	r1, r2, #4
    3128:	6019      	str	r1, [r3, #0]
    312a:	6813      	ldr	r3, [r2, #0]
    312c:	7033      	strb	r3, [r6, #0]
    312e:	2301      	movs	r3, #1
    3130:	e079      	b.n	3226 <_printf_i+0x182>
    3132:	0649      	lsls	r1, r1, #25
    3134:	d5d9      	bpl.n	30ea <_printf_i+0x46>
    3136:	1d11      	adds	r1, r2, #4
    3138:	6019      	str	r1, [r3, #0]
    313a:	2300      	movs	r3, #0
    313c:	5ed5      	ldrsh	r5, [r2, r3]
    313e:	2d00      	cmp	r5, #0
    3140:	da03      	bge.n	314a <_printf_i+0xa6>
    3142:	232d      	movs	r3, #45	; 0x2d
    3144:	9a04      	ldr	r2, [sp, #16]
    3146:	426d      	negs	r5, r5
    3148:	7013      	strb	r3, [r2, #0]
    314a:	4b62      	ldr	r3, [pc, #392]	; (32d4 <_printf_i+0x230>)
    314c:	270a      	movs	r7, #10
    314e:	9303      	str	r3, [sp, #12]
    3150:	e02f      	b.n	31b2 <_printf_i+0x10e>
    3152:	6820      	ldr	r0, [r4, #0]
    3154:	6819      	ldr	r1, [r3, #0]
    3156:	0605      	lsls	r5, r0, #24
    3158:	d503      	bpl.n	3162 <_printf_i+0xbe>
    315a:	1d08      	adds	r0, r1, #4
    315c:	6018      	str	r0, [r3, #0]
    315e:	680d      	ldr	r5, [r1, #0]
    3160:	e005      	b.n	316e <_printf_i+0xca>
    3162:	0640      	lsls	r0, r0, #25
    3164:	d5f9      	bpl.n	315a <_printf_i+0xb6>
    3166:	680d      	ldr	r5, [r1, #0]
    3168:	1d08      	adds	r0, r1, #4
    316a:	6018      	str	r0, [r3, #0]
    316c:	b2ad      	uxth	r5, r5
    316e:	4b59      	ldr	r3, [pc, #356]	; (32d4 <_printf_i+0x230>)
    3170:	2708      	movs	r7, #8
    3172:	9303      	str	r3, [sp, #12]
    3174:	2a6f      	cmp	r2, #111	; 0x6f
    3176:	d018      	beq.n	31aa <_printf_i+0x106>
    3178:	270a      	movs	r7, #10
    317a:	e016      	b.n	31aa <_printf_i+0x106>
    317c:	3145      	adds	r1, #69	; 0x45
    317e:	700a      	strb	r2, [r1, #0]
    3180:	4a54      	ldr	r2, [pc, #336]	; (32d4 <_printf_i+0x230>)
    3182:	9203      	str	r2, [sp, #12]
    3184:	681a      	ldr	r2, [r3, #0]
    3186:	6821      	ldr	r1, [r4, #0]
    3188:	1d10      	adds	r0, r2, #4
    318a:	6018      	str	r0, [r3, #0]
    318c:	6815      	ldr	r5, [r2, #0]
    318e:	0608      	lsls	r0, r1, #24
    3190:	d522      	bpl.n	31d8 <_printf_i+0x134>
    3192:	07cb      	lsls	r3, r1, #31
    3194:	d502      	bpl.n	319c <_printf_i+0xf8>
    3196:	2320      	movs	r3, #32
    3198:	4319      	orrs	r1, r3
    319a:	6021      	str	r1, [r4, #0]
    319c:	2710      	movs	r7, #16
    319e:	2d00      	cmp	r5, #0
    31a0:	d103      	bne.n	31aa <_printf_i+0x106>
    31a2:	2320      	movs	r3, #32
    31a4:	6822      	ldr	r2, [r4, #0]
    31a6:	439a      	bics	r2, r3
    31a8:	6022      	str	r2, [r4, #0]
    31aa:	0023      	movs	r3, r4
    31ac:	2200      	movs	r2, #0
    31ae:	3343      	adds	r3, #67	; 0x43
    31b0:	701a      	strb	r2, [r3, #0]
    31b2:	6863      	ldr	r3, [r4, #4]
    31b4:	60a3      	str	r3, [r4, #8]
    31b6:	2b00      	cmp	r3, #0
    31b8:	db5c      	blt.n	3274 <_printf_i+0x1d0>
    31ba:	2204      	movs	r2, #4
    31bc:	6821      	ldr	r1, [r4, #0]
    31be:	4391      	bics	r1, r2
    31c0:	6021      	str	r1, [r4, #0]
    31c2:	2d00      	cmp	r5, #0
    31c4:	d158      	bne.n	3278 <_printf_i+0x1d4>
    31c6:	9e04      	ldr	r6, [sp, #16]
    31c8:	2b00      	cmp	r3, #0
    31ca:	d064      	beq.n	3296 <_printf_i+0x1f2>
    31cc:	0026      	movs	r6, r4
    31ce:	9b03      	ldr	r3, [sp, #12]
    31d0:	3642      	adds	r6, #66	; 0x42
    31d2:	781b      	ldrb	r3, [r3, #0]
    31d4:	7033      	strb	r3, [r6, #0]
    31d6:	e05e      	b.n	3296 <_printf_i+0x1f2>
    31d8:	0648      	lsls	r0, r1, #25
    31da:	d5da      	bpl.n	3192 <_printf_i+0xee>
    31dc:	b2ad      	uxth	r5, r5
    31de:	e7d8      	b.n	3192 <_printf_i+0xee>
    31e0:	6809      	ldr	r1, [r1, #0]
    31e2:	681a      	ldr	r2, [r3, #0]
    31e4:	0608      	lsls	r0, r1, #24
    31e6:	d505      	bpl.n	31f4 <_printf_i+0x150>
    31e8:	1d11      	adds	r1, r2, #4
    31ea:	6019      	str	r1, [r3, #0]
    31ec:	6813      	ldr	r3, [r2, #0]
    31ee:	6962      	ldr	r2, [r4, #20]
    31f0:	601a      	str	r2, [r3, #0]
    31f2:	e006      	b.n	3202 <_printf_i+0x15e>
    31f4:	0649      	lsls	r1, r1, #25
    31f6:	d5f7      	bpl.n	31e8 <_printf_i+0x144>
    31f8:	1d11      	adds	r1, r2, #4
    31fa:	6019      	str	r1, [r3, #0]
    31fc:	6813      	ldr	r3, [r2, #0]
    31fe:	8aa2      	ldrh	r2, [r4, #20]
    3200:	801a      	strh	r2, [r3, #0]
    3202:	2300      	movs	r3, #0
    3204:	9e04      	ldr	r6, [sp, #16]
    3206:	6123      	str	r3, [r4, #16]
    3208:	e054      	b.n	32b4 <_printf_i+0x210>
    320a:	681a      	ldr	r2, [r3, #0]
    320c:	1d11      	adds	r1, r2, #4
    320e:	6019      	str	r1, [r3, #0]
    3210:	6816      	ldr	r6, [r2, #0]
    3212:	2100      	movs	r1, #0
    3214:	6862      	ldr	r2, [r4, #4]
    3216:	0030      	movs	r0, r6
    3218:	f000 fad2 	bl	37c0 <memchr>
    321c:	2800      	cmp	r0, #0
    321e:	d001      	beq.n	3224 <_printf_i+0x180>
    3220:	1b80      	subs	r0, r0, r6
    3222:	6060      	str	r0, [r4, #4]
    3224:	6863      	ldr	r3, [r4, #4]
    3226:	6123      	str	r3, [r4, #16]
    3228:	2300      	movs	r3, #0
    322a:	9a04      	ldr	r2, [sp, #16]
    322c:	7013      	strb	r3, [r2, #0]
    322e:	e041      	b.n	32b4 <_printf_i+0x210>
    3230:	6923      	ldr	r3, [r4, #16]
    3232:	0032      	movs	r2, r6
    3234:	9906      	ldr	r1, [sp, #24]
    3236:	9805      	ldr	r0, [sp, #20]
    3238:	9d07      	ldr	r5, [sp, #28]
    323a:	47a8      	blx	r5
    323c:	1c43      	adds	r3, r0, #1
    323e:	d043      	beq.n	32c8 <_printf_i+0x224>
    3240:	6823      	ldr	r3, [r4, #0]
    3242:	2500      	movs	r5, #0
    3244:	079b      	lsls	r3, r3, #30
    3246:	d40f      	bmi.n	3268 <_printf_i+0x1c4>
    3248:	9b09      	ldr	r3, [sp, #36]	; 0x24
    324a:	68e0      	ldr	r0, [r4, #12]
    324c:	4298      	cmp	r0, r3
    324e:	da3d      	bge.n	32cc <_printf_i+0x228>
    3250:	0018      	movs	r0, r3
    3252:	e03b      	b.n	32cc <_printf_i+0x228>
    3254:	0022      	movs	r2, r4
    3256:	2301      	movs	r3, #1
    3258:	3219      	adds	r2, #25
    325a:	9906      	ldr	r1, [sp, #24]
    325c:	9805      	ldr	r0, [sp, #20]
    325e:	9e07      	ldr	r6, [sp, #28]
    3260:	47b0      	blx	r6
    3262:	1c43      	adds	r3, r0, #1
    3264:	d030      	beq.n	32c8 <_printf_i+0x224>
    3266:	3501      	adds	r5, #1
    3268:	68e3      	ldr	r3, [r4, #12]
    326a:	9a09      	ldr	r2, [sp, #36]	; 0x24
    326c:	1a9b      	subs	r3, r3, r2
    326e:	429d      	cmp	r5, r3
    3270:	dbf0      	blt.n	3254 <_printf_i+0x1b0>
    3272:	e7e9      	b.n	3248 <_printf_i+0x1a4>
    3274:	2d00      	cmp	r5, #0
    3276:	d0a9      	beq.n	31cc <_printf_i+0x128>
    3278:	9e04      	ldr	r6, [sp, #16]
    327a:	0028      	movs	r0, r5
    327c:	0039      	movs	r1, r7
    327e:	f7ff fb4d 	bl	291c <__aeabi_uidivmod>
    3282:	9b03      	ldr	r3, [sp, #12]
    3284:	3e01      	subs	r6, #1
    3286:	5c5b      	ldrb	r3, [r3, r1]
    3288:	0028      	movs	r0, r5
    328a:	7033      	strb	r3, [r6, #0]
    328c:	0039      	movs	r1, r7
    328e:	f7ff fabf 	bl	2810 <__udivsi3>
    3292:	1e05      	subs	r5, r0, #0
    3294:	d1f1      	bne.n	327a <_printf_i+0x1d6>
    3296:	2f08      	cmp	r7, #8
    3298:	d109      	bne.n	32ae <_printf_i+0x20a>
    329a:	6823      	ldr	r3, [r4, #0]
    329c:	07db      	lsls	r3, r3, #31
    329e:	d506      	bpl.n	32ae <_printf_i+0x20a>
    32a0:	6863      	ldr	r3, [r4, #4]
    32a2:	6922      	ldr	r2, [r4, #16]
    32a4:	4293      	cmp	r3, r2
    32a6:	dc02      	bgt.n	32ae <_printf_i+0x20a>
    32a8:	2330      	movs	r3, #48	; 0x30
    32aa:	3e01      	subs	r6, #1
    32ac:	7033      	strb	r3, [r6, #0]
    32ae:	9b04      	ldr	r3, [sp, #16]
    32b0:	1b9b      	subs	r3, r3, r6
    32b2:	6123      	str	r3, [r4, #16]
    32b4:	9b07      	ldr	r3, [sp, #28]
    32b6:	aa09      	add	r2, sp, #36	; 0x24
    32b8:	9300      	str	r3, [sp, #0]
    32ba:	0021      	movs	r1, r4
    32bc:	9b06      	ldr	r3, [sp, #24]
    32be:	9805      	ldr	r0, [sp, #20]
    32c0:	f7ff fe82 	bl	2fc8 <_printf_common>
    32c4:	1c43      	adds	r3, r0, #1
    32c6:	d1b3      	bne.n	3230 <_printf_i+0x18c>
    32c8:	2001      	movs	r0, #1
    32ca:	4240      	negs	r0, r0
    32cc:	b00b      	add	sp, #44	; 0x2c
    32ce:	bdf0      	pop	{r4, r5, r6, r7, pc}
    32d0:	0000398a 	.word	0x0000398a
    32d4:	00003979 	.word	0x00003979

000032d8 <__sread>:
    32d8:	b570      	push	{r4, r5, r6, lr}
    32da:	000c      	movs	r4, r1
    32dc:	250e      	movs	r5, #14
    32de:	5f49      	ldrsh	r1, [r1, r5]
    32e0:	f000 fa7a 	bl	37d8 <_read_r>
    32e4:	2800      	cmp	r0, #0
    32e6:	db03      	blt.n	32f0 <__sread+0x18>
    32e8:	6d63      	ldr	r3, [r4, #84]	; 0x54
    32ea:	181b      	adds	r3, r3, r0
    32ec:	6563      	str	r3, [r4, #84]	; 0x54
    32ee:	bd70      	pop	{r4, r5, r6, pc}
    32f0:	89a3      	ldrh	r3, [r4, #12]
    32f2:	4a02      	ldr	r2, [pc, #8]	; (32fc <__sread+0x24>)
    32f4:	4013      	ands	r3, r2
    32f6:	81a3      	strh	r3, [r4, #12]
    32f8:	e7f9      	b.n	32ee <__sread+0x16>
    32fa:	46c0      	nop			; (mov r8, r8)
    32fc:	ffffefff 	.word	0xffffefff

00003300 <__swrite>:
    3300:	b5f8      	push	{r3, r4, r5, r6, r7, lr}
    3302:	001f      	movs	r7, r3
    3304:	898b      	ldrh	r3, [r1, #12]
    3306:	0005      	movs	r5, r0
    3308:	000c      	movs	r4, r1
    330a:	0016      	movs	r6, r2
    330c:	05db      	lsls	r3, r3, #23
    330e:	d505      	bpl.n	331c <__swrite+0x1c>
    3310:	230e      	movs	r3, #14
    3312:	5ec9      	ldrsh	r1, [r1, r3]
    3314:	2200      	movs	r2, #0
    3316:	2302      	movs	r3, #2
    3318:	f000 f9d2 	bl	36c0 <_lseek_r>
    331c:	89a3      	ldrh	r3, [r4, #12]
    331e:	4a05      	ldr	r2, [pc, #20]	; (3334 <__swrite+0x34>)
    3320:	0028      	movs	r0, r5
    3322:	4013      	ands	r3, r2
    3324:	81a3      	strh	r3, [r4, #12]
    3326:	0032      	movs	r2, r6
    3328:	230e      	movs	r3, #14
    332a:	5ee1      	ldrsh	r1, [r4, r3]
    332c:	003b      	movs	r3, r7
    332e:	f000 f875 	bl	341c <_write_r>
    3332:	bdf8      	pop	{r3, r4, r5, r6, r7, pc}
    3334:	ffffefff 	.word	0xffffefff

00003338 <__sseek>:
    3338:	b570      	push	{r4, r5, r6, lr}
    333a:	000c      	movs	r4, r1
    333c:	250e      	movs	r5, #14
    333e:	5f49      	ldrsh	r1, [r1, r5]
    3340:	f000 f9be 	bl	36c0 <_lseek_r>
    3344:	89a3      	ldrh	r3, [r4, #12]
    3346:	1c42      	adds	r2, r0, #1
    3348:	d103      	bne.n	3352 <__sseek+0x1a>
    334a:	4a05      	ldr	r2, [pc, #20]	; (3360 <__sseek+0x28>)
    334c:	4013      	ands	r3, r2
    334e:	81a3      	strh	r3, [r4, #12]
    3350:	bd70      	pop	{r4, r5, r6, pc}
    3352:	2280      	movs	r2, #128	; 0x80
    3354:	0152      	lsls	r2, r2, #5
    3356:	4313      	orrs	r3, r2
    3358:	81a3      	strh	r3, [r4, #12]
    335a:	6560      	str	r0, [r4, #84]	; 0x54
    335c:	e7f8      	b.n	3350 <__sseek+0x18>
    335e:	46c0      	nop			; (mov r8, r8)
    3360:	ffffefff 	.word	0xffffefff

00003364 <__sclose>:
    3364:	b510      	push	{r4, lr}
    3366:	230e      	movs	r3, #14
    3368:	5ec9      	ldrsh	r1, [r1, r3]
    336a:	f000 f8e1 	bl	3530 <_close_r>
    336e:	bd10      	pop	{r4, pc}

00003370 <__swbuf_r>:
    3370:	b5f8      	push	{r3, r4, r5, r6, r7, lr}
    3372:	0005      	movs	r5, r0
    3374:	000e      	movs	r6, r1
    3376:	0014      	movs	r4, r2
    3378:	2800      	cmp	r0, #0
    337a:	d004      	beq.n	3386 <__swbuf_r+0x16>
    337c:	6983      	ldr	r3, [r0, #24]
    337e:	2b00      	cmp	r3, #0
    3380:	d101      	bne.n	3386 <__swbuf_r+0x16>
    3382:	f7ff fc47 	bl	2c14 <__sinit>
    3386:	4b22      	ldr	r3, [pc, #136]	; (3410 <__swbuf_r+0xa0>)
    3388:	429c      	cmp	r4, r3
    338a:	d12d      	bne.n	33e8 <__swbuf_r+0x78>
    338c:	686c      	ldr	r4, [r5, #4]
    338e:	69a3      	ldr	r3, [r4, #24]
    3390:	60a3      	str	r3, [r4, #8]
    3392:	89a3      	ldrh	r3, [r4, #12]
    3394:	071b      	lsls	r3, r3, #28
    3396:	d531      	bpl.n	33fc <__swbuf_r+0x8c>
    3398:	6923      	ldr	r3, [r4, #16]
    339a:	2b00      	cmp	r3, #0
    339c:	d02e      	beq.n	33fc <__swbuf_r+0x8c>
    339e:	6823      	ldr	r3, [r4, #0]
    33a0:	6922      	ldr	r2, [r4, #16]
    33a2:	b2f7      	uxtb	r7, r6
    33a4:	1a98      	subs	r0, r3, r2
    33a6:	6963      	ldr	r3, [r4, #20]
    33a8:	b2f6      	uxtb	r6, r6
    33aa:	4298      	cmp	r0, r3
    33ac:	db05      	blt.n	33ba <__swbuf_r+0x4a>
    33ae:	0021      	movs	r1, r4
    33b0:	0028      	movs	r0, r5
    33b2:	f000 f959 	bl	3668 <_fflush_r>
    33b6:	2800      	cmp	r0, #0
    33b8:	d126      	bne.n	3408 <__swbuf_r+0x98>
    33ba:	68a3      	ldr	r3, [r4, #8]
    33bc:	3001      	adds	r0, #1
    33be:	3b01      	subs	r3, #1
    33c0:	60a3      	str	r3, [r4, #8]
    33c2:	6823      	ldr	r3, [r4, #0]
    33c4:	1c5a      	adds	r2, r3, #1
    33c6:	6022      	str	r2, [r4, #0]
    33c8:	701f      	strb	r7, [r3, #0]
    33ca:	6963      	ldr	r3, [r4, #20]
    33cc:	4298      	cmp	r0, r3
    33ce:	d004      	beq.n	33da <__swbuf_r+0x6a>
    33d0:	89a3      	ldrh	r3, [r4, #12]
    33d2:	07db      	lsls	r3, r3, #31
    33d4:	d51a      	bpl.n	340c <__swbuf_r+0x9c>
    33d6:	2e0a      	cmp	r6, #10
    33d8:	d118      	bne.n	340c <__swbuf_r+0x9c>
    33da:	0021      	movs	r1, r4
    33dc:	0028      	movs	r0, r5
    33de:	f000 f943 	bl	3668 <_fflush_r>
    33e2:	2800      	cmp	r0, #0
    33e4:	d012      	beq.n	340c <__swbuf_r+0x9c>
    33e6:	e00f      	b.n	3408 <__swbuf_r+0x98>
    33e8:	4b0a      	ldr	r3, [pc, #40]	; (3414 <__swbuf_r+0xa4>)
    33ea:	429c      	cmp	r4, r3
    33ec:	d101      	bne.n	33f2 <__swbuf_r+0x82>
    33ee:	68ac      	ldr	r4, [r5, #8]
    33f0:	e7cd      	b.n	338e <__swbuf_r+0x1e>
    33f2:	4b09      	ldr	r3, [pc, #36]	; (3418 <__swbuf_r+0xa8>)
    33f4:	429c      	cmp	r4, r3
    33f6:	d1ca      	bne.n	338e <__swbuf_r+0x1e>
    33f8:	68ec      	ldr	r4, [r5, #12]
    33fa:	e7c8      	b.n	338e <__swbuf_r+0x1e>
    33fc:	0021      	movs	r1, r4
    33fe:	0028      	movs	r0, r5
    3400:	f000 f820 	bl	3444 <__swsetup_r>
    3404:	2800      	cmp	r0, #0
    3406:	d0ca      	beq.n	339e <__swbuf_r+0x2e>
    3408:	2601      	movs	r6, #1
    340a:	4276      	negs	r6, r6
    340c:	0030      	movs	r0, r6
    340e:	bdf8      	pop	{r3, r4, r5, r6, r7, pc}
    3410:	00003928 	.word	0x00003928
    3414:	00003948 	.word	0x00003948
    3418:	00003908 	.word	0x00003908

0000341c <_write_r>:
    341c:	b570      	push	{r4, r5, r6, lr}
    341e:	0005      	movs	r5, r0
    3420:	0008      	movs	r0, r1
    3422:	0011      	movs	r1, r2
    3424:	2200      	movs	r2, #0
    3426:	4c06      	ldr	r4, [pc, #24]	; (3440 <_write_r+0x24>)
    3428:	6022      	str	r2, [r4, #0]
    342a:	001a      	movs	r2, r3
    342c:	f000 fa14 	bl	3858 <_write>
    3430:	1c43      	adds	r3, r0, #1
    3432:	d103      	bne.n	343c <_write_r+0x20>
    3434:	6823      	ldr	r3, [r4, #0]
    3436:	2b00      	cmp	r3, #0
    3438:	d000      	beq.n	343c <_write_r+0x20>
    343a:	602b      	str	r3, [r5, #0]
    343c:	bd70      	pop	{r4, r5, r6, pc}
    343e:	46c0      	nop			; (mov r8, r8)
    3440:	2000061c 	.word	0x2000061c

00003444 <__swsetup_r>:
    3444:	4b36      	ldr	r3, [pc, #216]	; (3520 <__swsetup_r+0xdc>)
    3446:	b570      	push	{r4, r5, r6, lr}
    3448:	681d      	ldr	r5, [r3, #0]
    344a:	0006      	movs	r6, r0
    344c:	000c      	movs	r4, r1
    344e:	2d00      	cmp	r5, #0
    3450:	d005      	beq.n	345e <__swsetup_r+0x1a>
    3452:	69ab      	ldr	r3, [r5, #24]
    3454:	2b00      	cmp	r3, #0
    3456:	d102      	bne.n	345e <__swsetup_r+0x1a>
    3458:	0028      	movs	r0, r5
    345a:	f7ff fbdb 	bl	2c14 <__sinit>
    345e:	4b31      	ldr	r3, [pc, #196]	; (3524 <__swsetup_r+0xe0>)
    3460:	429c      	cmp	r4, r3
    3462:	d10f      	bne.n	3484 <__swsetup_r+0x40>
    3464:	686c      	ldr	r4, [r5, #4]
    3466:	230c      	movs	r3, #12
    3468:	5ee2      	ldrsh	r2, [r4, r3]
    346a:	b293      	uxth	r3, r2
    346c:	0719      	lsls	r1, r3, #28
    346e:	d42d      	bmi.n	34cc <__swsetup_r+0x88>
    3470:	06d9      	lsls	r1, r3, #27
    3472:	d411      	bmi.n	3498 <__swsetup_r+0x54>
    3474:	2309      	movs	r3, #9
    3476:	2001      	movs	r0, #1
    3478:	6033      	str	r3, [r6, #0]
    347a:	3337      	adds	r3, #55	; 0x37
    347c:	4313      	orrs	r3, r2
    347e:	81a3      	strh	r3, [r4, #12]
    3480:	4240      	negs	r0, r0
    3482:	bd70      	pop	{r4, r5, r6, pc}
    3484:	4b28      	ldr	r3, [pc, #160]	; (3528 <__swsetup_r+0xe4>)
    3486:	429c      	cmp	r4, r3
    3488:	d101      	bne.n	348e <__swsetup_r+0x4a>
    348a:	68ac      	ldr	r4, [r5, #8]
    348c:	e7eb      	b.n	3466 <__swsetup_r+0x22>
    348e:	4b27      	ldr	r3, [pc, #156]	; (352c <__swsetup_r+0xe8>)
    3490:	429c      	cmp	r4, r3
    3492:	d1e8      	bne.n	3466 <__swsetup_r+0x22>
    3494:	68ec      	ldr	r4, [r5, #12]
    3496:	e7e6      	b.n	3466 <__swsetup_r+0x22>
    3498:	075b      	lsls	r3, r3, #29
    349a:	d513      	bpl.n	34c4 <__swsetup_r+0x80>
    349c:	6b61      	ldr	r1, [r4, #52]	; 0x34
    349e:	2900      	cmp	r1, #0
    34a0:	d008      	beq.n	34b4 <__swsetup_r+0x70>
    34a2:	0023      	movs	r3, r4
    34a4:	3344      	adds	r3, #68	; 0x44
    34a6:	4299      	cmp	r1, r3
    34a8:	d002      	beq.n	34b0 <__swsetup_r+0x6c>
    34aa:	0030      	movs	r0, r6
    34ac:	f7ff fa9c 	bl	29e8 <_free_r>
    34b0:	2300      	movs	r3, #0
    34b2:	6363      	str	r3, [r4, #52]	; 0x34
    34b4:	2224      	movs	r2, #36	; 0x24
    34b6:	89a3      	ldrh	r3, [r4, #12]
    34b8:	4393      	bics	r3, r2
    34ba:	81a3      	strh	r3, [r4, #12]
    34bc:	2300      	movs	r3, #0
    34be:	6063      	str	r3, [r4, #4]
    34c0:	6923      	ldr	r3, [r4, #16]
    34c2:	6023      	str	r3, [r4, #0]
    34c4:	2308      	movs	r3, #8
    34c6:	89a2      	ldrh	r2, [r4, #12]
    34c8:	4313      	orrs	r3, r2
    34ca:	81a3      	strh	r3, [r4, #12]
    34cc:	6923      	ldr	r3, [r4, #16]
    34ce:	2b00      	cmp	r3, #0
    34d0:	d10b      	bne.n	34ea <__swsetup_r+0xa6>
    34d2:	21a0      	movs	r1, #160	; 0xa0
    34d4:	2280      	movs	r2, #128	; 0x80
    34d6:	89a3      	ldrh	r3, [r4, #12]
    34d8:	0089      	lsls	r1, r1, #2
    34da:	0092      	lsls	r2, r2, #2
    34dc:	400b      	ands	r3, r1
    34de:	4293      	cmp	r3, r2
    34e0:	d003      	beq.n	34ea <__swsetup_r+0xa6>
    34e2:	0021      	movs	r1, r4
    34e4:	0030      	movs	r0, r6
    34e6:	f000 f927 	bl	3738 <__smakebuf_r>
    34ea:	2301      	movs	r3, #1
    34ec:	89a2      	ldrh	r2, [r4, #12]
    34ee:	4013      	ands	r3, r2
    34f0:	d011      	beq.n	3516 <__swsetup_r+0xd2>
    34f2:	2300      	movs	r3, #0
    34f4:	60a3      	str	r3, [r4, #8]
    34f6:	6963      	ldr	r3, [r4, #20]
    34f8:	425b      	negs	r3, r3
    34fa:	61a3      	str	r3, [r4, #24]
    34fc:	2000      	movs	r0, #0
    34fe:	6923      	ldr	r3, [r4, #16]
    3500:	4283      	cmp	r3, r0
    3502:	d1be      	bne.n	3482 <__swsetup_r+0x3e>
    3504:	230c      	movs	r3, #12
    3506:	5ee2      	ldrsh	r2, [r4, r3]
    3508:	0613      	lsls	r3, r2, #24
    350a:	d5ba      	bpl.n	3482 <__swsetup_r+0x3e>
    350c:	2340      	movs	r3, #64	; 0x40
    350e:	4313      	orrs	r3, r2
    3510:	81a3      	strh	r3, [r4, #12]
    3512:	3801      	subs	r0, #1
    3514:	e7b5      	b.n	3482 <__swsetup_r+0x3e>
    3516:	0792      	lsls	r2, r2, #30
    3518:	d400      	bmi.n	351c <__swsetup_r+0xd8>
    351a:	6963      	ldr	r3, [r4, #20]
    351c:	60a3      	str	r3, [r4, #8]
    351e:	e7ed      	b.n	34fc <__swsetup_r+0xb8>
    3520:	20000074 	.word	0x20000074
    3524:	00003928 	.word	0x00003928
    3528:	00003948 	.word	0x00003948
    352c:	00003908 	.word	0x00003908

00003530 <_close_r>:
    3530:	2300      	movs	r3, #0
    3532:	b570      	push	{r4, r5, r6, lr}
    3534:	4c06      	ldr	r4, [pc, #24]	; (3550 <_close_r+0x20>)
    3536:	0005      	movs	r5, r0
    3538:	0008      	movs	r0, r1
    353a:	6023      	str	r3, [r4, #0]
    353c:	f7fd f97e 	bl	83c <_close>
    3540:	1c43      	adds	r3, r0, #1
    3542:	d103      	bne.n	354c <_close_r+0x1c>
    3544:	6823      	ldr	r3, [r4, #0]
    3546:	2b00      	cmp	r3, #0
    3548:	d000      	beq.n	354c <_close_r+0x1c>
    354a:	602b      	str	r3, [r5, #0]
    354c:	bd70      	pop	{r4, r5, r6, pc}
    354e:	46c0      	nop			; (mov r8, r8)
    3550:	2000061c 	.word	0x2000061c

00003554 <__sflush_r>:
    3554:	b5f7      	push	{r0, r1, r2, r4, r5, r6, r7, lr}
    3556:	898a      	ldrh	r2, [r1, #12]
    3558:	0005      	movs	r5, r0
    355a:	000c      	movs	r4, r1
    355c:	0713      	lsls	r3, r2, #28
    355e:	d460      	bmi.n	3622 <__sflush_r+0xce>
    3560:	684b      	ldr	r3, [r1, #4]
    3562:	2b00      	cmp	r3, #0
    3564:	dc04      	bgt.n	3570 <__sflush_r+0x1c>
    3566:	6c0b      	ldr	r3, [r1, #64]	; 0x40
    3568:	2b00      	cmp	r3, #0
    356a:	dc01      	bgt.n	3570 <__sflush_r+0x1c>
    356c:	2000      	movs	r0, #0
    356e:	bdfe      	pop	{r1, r2, r3, r4, r5, r6, r7, pc}
    3570:	6ae7      	ldr	r7, [r4, #44]	; 0x2c
    3572:	2f00      	cmp	r7, #0
    3574:	d0fa      	beq.n	356c <__sflush_r+0x18>
    3576:	2300      	movs	r3, #0
    3578:	682e      	ldr	r6, [r5, #0]
    357a:	602b      	str	r3, [r5, #0]
    357c:	2380      	movs	r3, #128	; 0x80
    357e:	015b      	lsls	r3, r3, #5
    3580:	401a      	ands	r2, r3
    3582:	d034      	beq.n	35ee <__sflush_r+0x9a>
    3584:	6d60      	ldr	r0, [r4, #84]	; 0x54
    3586:	89a3      	ldrh	r3, [r4, #12]
    3588:	075b      	lsls	r3, r3, #29
    358a:	d506      	bpl.n	359a <__sflush_r+0x46>
    358c:	6863      	ldr	r3, [r4, #4]
    358e:	1ac0      	subs	r0, r0, r3
    3590:	6b63      	ldr	r3, [r4, #52]	; 0x34
    3592:	2b00      	cmp	r3, #0
    3594:	d001      	beq.n	359a <__sflush_r+0x46>
    3596:	6c23      	ldr	r3, [r4, #64]	; 0x40
    3598:	1ac0      	subs	r0, r0, r3
    359a:	0002      	movs	r2, r0
    359c:	6a21      	ldr	r1, [r4, #32]
    359e:	2300      	movs	r3, #0
    35a0:	0028      	movs	r0, r5
    35a2:	6ae7      	ldr	r7, [r4, #44]	; 0x2c
    35a4:	47b8      	blx	r7
    35a6:	89a1      	ldrh	r1, [r4, #12]
    35a8:	1c43      	adds	r3, r0, #1
    35aa:	d106      	bne.n	35ba <__sflush_r+0x66>
    35ac:	682b      	ldr	r3, [r5, #0]
    35ae:	2b1d      	cmp	r3, #29
    35b0:	d831      	bhi.n	3616 <__sflush_r+0xc2>
    35b2:	4a2c      	ldr	r2, [pc, #176]	; (3664 <__sflush_r+0x110>)
    35b4:	40da      	lsrs	r2, r3
    35b6:	07d3      	lsls	r3, r2, #31
    35b8:	d52d      	bpl.n	3616 <__sflush_r+0xc2>
    35ba:	2300      	movs	r3, #0
    35bc:	6063      	str	r3, [r4, #4]
    35be:	6923      	ldr	r3, [r4, #16]
    35c0:	6023      	str	r3, [r4, #0]
    35c2:	04cb      	lsls	r3, r1, #19
    35c4:	d505      	bpl.n	35d2 <__sflush_r+0x7e>
    35c6:	1c43      	adds	r3, r0, #1
    35c8:	d102      	bne.n	35d0 <__sflush_r+0x7c>
    35ca:	682b      	ldr	r3, [r5, #0]
    35cc:	2b00      	cmp	r3, #0
    35ce:	d100      	bne.n	35d2 <__sflush_r+0x7e>
    35d0:	6560      	str	r0, [r4, #84]	; 0x54
    35d2:	6b61      	ldr	r1, [r4, #52]	; 0x34
    35d4:	602e      	str	r6, [r5, #0]
    35d6:	2900      	cmp	r1, #0
    35d8:	d0c8      	beq.n	356c <__sflush_r+0x18>
    35da:	0023      	movs	r3, r4
    35dc:	3344      	adds	r3, #68	; 0x44
    35de:	4299      	cmp	r1, r3
    35e0:	d002      	beq.n	35e8 <__sflush_r+0x94>
    35e2:	0028      	movs	r0, r5
    35e4:	f7ff fa00 	bl	29e8 <_free_r>
    35e8:	2000      	movs	r0, #0
    35ea:	6360      	str	r0, [r4, #52]	; 0x34
    35ec:	e7bf      	b.n	356e <__sflush_r+0x1a>
    35ee:	2301      	movs	r3, #1
    35f0:	6a21      	ldr	r1, [r4, #32]
    35f2:	0028      	movs	r0, r5
    35f4:	47b8      	blx	r7
    35f6:	1c43      	adds	r3, r0, #1
    35f8:	d1c5      	bne.n	3586 <__sflush_r+0x32>
    35fa:	682b      	ldr	r3, [r5, #0]
    35fc:	2b00      	cmp	r3, #0
    35fe:	d0c2      	beq.n	3586 <__sflush_r+0x32>
    3600:	2b1d      	cmp	r3, #29
    3602:	d001      	beq.n	3608 <__sflush_r+0xb4>
    3604:	2b16      	cmp	r3, #22
    3606:	d101      	bne.n	360c <__sflush_r+0xb8>
    3608:	602e      	str	r6, [r5, #0]
    360a:	e7af      	b.n	356c <__sflush_r+0x18>
    360c:	2340      	movs	r3, #64	; 0x40
    360e:	89a2      	ldrh	r2, [r4, #12]
    3610:	4313      	orrs	r3, r2
    3612:	81a3      	strh	r3, [r4, #12]
    3614:	e7ab      	b.n	356e <__sflush_r+0x1a>
    3616:	2340      	movs	r3, #64	; 0x40
    3618:	430b      	orrs	r3, r1
    361a:	2001      	movs	r0, #1
    361c:	81a3      	strh	r3, [r4, #12]
    361e:	4240      	negs	r0, r0
    3620:	e7a5      	b.n	356e <__sflush_r+0x1a>
    3622:	690f      	ldr	r7, [r1, #16]
    3624:	2f00      	cmp	r7, #0
    3626:	d0a1      	beq.n	356c <__sflush_r+0x18>
    3628:	680b      	ldr	r3, [r1, #0]
    362a:	600f      	str	r7, [r1, #0]
    362c:	1bdb      	subs	r3, r3, r7
    362e:	9301      	str	r3, [sp, #4]
    3630:	2300      	movs	r3, #0
    3632:	0792      	lsls	r2, r2, #30
    3634:	d100      	bne.n	3638 <__sflush_r+0xe4>
    3636:	694b      	ldr	r3, [r1, #20]
    3638:	60a3      	str	r3, [r4, #8]
    363a:	9b01      	ldr	r3, [sp, #4]
    363c:	2b00      	cmp	r3, #0
    363e:	dc00      	bgt.n	3642 <__sflush_r+0xee>
    3640:	e794      	b.n	356c <__sflush_r+0x18>
    3642:	9b01      	ldr	r3, [sp, #4]
    3644:	003a      	movs	r2, r7
    3646:	6a21      	ldr	r1, [r4, #32]
    3648:	0028      	movs	r0, r5
    364a:	6aa6      	ldr	r6, [r4, #40]	; 0x28
    364c:	47b0      	blx	r6
    364e:	2800      	cmp	r0, #0
    3650:	dc03      	bgt.n	365a <__sflush_r+0x106>
    3652:	2340      	movs	r3, #64	; 0x40
    3654:	89a2      	ldrh	r2, [r4, #12]
    3656:	4313      	orrs	r3, r2
    3658:	e7df      	b.n	361a <__sflush_r+0xc6>
    365a:	9b01      	ldr	r3, [sp, #4]
    365c:	183f      	adds	r7, r7, r0
    365e:	1a1b      	subs	r3, r3, r0
    3660:	9301      	str	r3, [sp, #4]
    3662:	e7ea      	b.n	363a <__sflush_r+0xe6>
    3664:	20400001 	.word	0x20400001

00003668 <_fflush_r>:
    3668:	690b      	ldr	r3, [r1, #16]
    366a:	b570      	push	{r4, r5, r6, lr}
    366c:	0005      	movs	r5, r0
    366e:	000c      	movs	r4, r1
    3670:	2b00      	cmp	r3, #0
    3672:	d101      	bne.n	3678 <_fflush_r+0x10>
    3674:	2000      	movs	r0, #0
    3676:	bd70      	pop	{r4, r5, r6, pc}
    3678:	2800      	cmp	r0, #0
    367a:	d004      	beq.n	3686 <_fflush_r+0x1e>
    367c:	6983      	ldr	r3, [r0, #24]
    367e:	2b00      	cmp	r3, #0
    3680:	d101      	bne.n	3686 <_fflush_r+0x1e>
    3682:	f7ff fac7 	bl	2c14 <__sinit>
    3686:	4b0b      	ldr	r3, [pc, #44]	; (36b4 <_fflush_r+0x4c>)
    3688:	429c      	cmp	r4, r3
    368a:	d109      	bne.n	36a0 <_fflush_r+0x38>
    368c:	686c      	ldr	r4, [r5, #4]
    368e:	220c      	movs	r2, #12
    3690:	5ea3      	ldrsh	r3, [r4, r2]
    3692:	2b00      	cmp	r3, #0
    3694:	d0ee      	beq.n	3674 <_fflush_r+0xc>
    3696:	0021      	movs	r1, r4
    3698:	0028      	movs	r0, r5
    369a:	f7ff ff5b 	bl	3554 <__sflush_r>
    369e:	e7ea      	b.n	3676 <_fflush_r+0xe>
    36a0:	4b05      	ldr	r3, [pc, #20]	; (36b8 <_fflush_r+0x50>)
    36a2:	429c      	cmp	r4, r3
    36a4:	d101      	bne.n	36aa <_fflush_r+0x42>
    36a6:	68ac      	ldr	r4, [r5, #8]
    36a8:	e7f1      	b.n	368e <_fflush_r+0x26>
    36aa:	4b04      	ldr	r3, [pc, #16]	; (36bc <_fflush_r+0x54>)
    36ac:	429c      	cmp	r4, r3
    36ae:	d1ee      	bne.n	368e <_fflush_r+0x26>
    36b0:	68ec      	ldr	r4, [r5, #12]
    36b2:	e7ec      	b.n	368e <_fflush_r+0x26>
    36b4:	00003928 	.word	0x00003928
    36b8:	00003948 	.word	0x00003948
    36bc:	00003908 	.word	0x00003908

000036c0 <_lseek_r>:
    36c0:	b570      	push	{r4, r5, r6, lr}
    36c2:	0005      	movs	r5, r0
    36c4:	0008      	movs	r0, r1
    36c6:	0011      	movs	r1, r2
    36c8:	2200      	movs	r2, #0
    36ca:	4c06      	ldr	r4, [pc, #24]	; (36e4 <_lseek_r+0x24>)
    36cc:	6022      	str	r2, [r4, #0]
    36ce:	001a      	movs	r2, r3
    36d0:	f7fd f8be 	bl	850 <_lseek>
    36d4:	1c43      	adds	r3, r0, #1
    36d6:	d103      	bne.n	36e0 <_lseek_r+0x20>
    36d8:	6823      	ldr	r3, [r4, #0]
    36da:	2b00      	cmp	r3, #0
    36dc:	d000      	beq.n	36e0 <_lseek_r+0x20>
    36de:	602b      	str	r3, [r5, #0]
    36e0:	bd70      	pop	{r4, r5, r6, pc}
    36e2:	46c0      	nop			; (mov r8, r8)
    36e4:	2000061c 	.word	0x2000061c

000036e8 <__swhatbuf_r>:
    36e8:	b570      	push	{r4, r5, r6, lr}
    36ea:	000e      	movs	r6, r1
    36ec:	001d      	movs	r5, r3
    36ee:	230e      	movs	r3, #14
    36f0:	5ec9      	ldrsh	r1, [r1, r3]
    36f2:	b090      	sub	sp, #64	; 0x40
    36f4:	0014      	movs	r4, r2
    36f6:	2900      	cmp	r1, #0
    36f8:	da07      	bge.n	370a <__swhatbuf_r+0x22>
    36fa:	2300      	movs	r3, #0
    36fc:	602b      	str	r3, [r5, #0]
    36fe:	89b3      	ldrh	r3, [r6, #12]
    3700:	061b      	lsls	r3, r3, #24
    3702:	d411      	bmi.n	3728 <__swhatbuf_r+0x40>
    3704:	2380      	movs	r3, #128	; 0x80
    3706:	00db      	lsls	r3, r3, #3
    3708:	e00f      	b.n	372a <__swhatbuf_r+0x42>
    370a:	aa01      	add	r2, sp, #4
    370c:	f000 f878 	bl	3800 <_fstat_r>
    3710:	2800      	cmp	r0, #0
    3712:	dbf2      	blt.n	36fa <__swhatbuf_r+0x12>
    3714:	22f0      	movs	r2, #240	; 0xf0
    3716:	9b02      	ldr	r3, [sp, #8]
    3718:	0212      	lsls	r2, r2, #8
    371a:	4013      	ands	r3, r2
    371c:	4a05      	ldr	r2, [pc, #20]	; (3734 <__swhatbuf_r+0x4c>)
    371e:	189b      	adds	r3, r3, r2
    3720:	425a      	negs	r2, r3
    3722:	4153      	adcs	r3, r2
    3724:	602b      	str	r3, [r5, #0]
    3726:	e7ed      	b.n	3704 <__swhatbuf_r+0x1c>
    3728:	2340      	movs	r3, #64	; 0x40
    372a:	2000      	movs	r0, #0
    372c:	6023      	str	r3, [r4, #0]
    372e:	b010      	add	sp, #64	; 0x40
    3730:	bd70      	pop	{r4, r5, r6, pc}
    3732:	46c0      	nop			; (mov r8, r8)
    3734:	ffffe000 	.word	0xffffe000

00003738 <__smakebuf_r>:
    3738:	b5f7      	push	{r0, r1, r2, r4, r5, r6, r7, lr}
    373a:	2602      	movs	r6, #2
    373c:	898b      	ldrh	r3, [r1, #12]
    373e:	0005      	movs	r5, r0
    3740:	000c      	movs	r4, r1
    3742:	4233      	tst	r3, r6
    3744:	d006      	beq.n	3754 <__smakebuf_r+0x1c>
    3746:	0023      	movs	r3, r4
    3748:	3347      	adds	r3, #71	; 0x47
    374a:	6023      	str	r3, [r4, #0]
    374c:	6123      	str	r3, [r4, #16]
    374e:	2301      	movs	r3, #1
    3750:	6163      	str	r3, [r4, #20]
    3752:	bdf7      	pop	{r0, r1, r2, r4, r5, r6, r7, pc}
    3754:	ab01      	add	r3, sp, #4
    3756:	466a      	mov	r2, sp
    3758:	f7ff ffc6 	bl	36e8 <__swhatbuf_r>
    375c:	9900      	ldr	r1, [sp, #0]
    375e:	0007      	movs	r7, r0
    3760:	0028      	movs	r0, r5
    3762:	f7ff f98b 	bl	2a7c <_malloc_r>
    3766:	2800      	cmp	r0, #0
    3768:	d108      	bne.n	377c <__smakebuf_r+0x44>
    376a:	220c      	movs	r2, #12
    376c:	5ea3      	ldrsh	r3, [r4, r2]
    376e:	059a      	lsls	r2, r3, #22
    3770:	d4ef      	bmi.n	3752 <__smakebuf_r+0x1a>
    3772:	2203      	movs	r2, #3
    3774:	4393      	bics	r3, r2
    3776:	431e      	orrs	r6, r3
    3778:	81a6      	strh	r6, [r4, #12]
    377a:	e7e4      	b.n	3746 <__smakebuf_r+0xe>
    377c:	4b0f      	ldr	r3, [pc, #60]	; (37bc <__smakebuf_r+0x84>)
    377e:	62ab      	str	r3, [r5, #40]	; 0x28
    3780:	2380      	movs	r3, #128	; 0x80
    3782:	89a2      	ldrh	r2, [r4, #12]
    3784:	6020      	str	r0, [r4, #0]
    3786:	4313      	orrs	r3, r2
    3788:	81a3      	strh	r3, [r4, #12]
    378a:	9b00      	ldr	r3, [sp, #0]
    378c:	6120      	str	r0, [r4, #16]
    378e:	6163      	str	r3, [r4, #20]
    3790:	9b01      	ldr	r3, [sp, #4]
    3792:	2b00      	cmp	r3, #0
    3794:	d00d      	beq.n	37b2 <__smakebuf_r+0x7a>
    3796:	230e      	movs	r3, #14
    3798:	5ee1      	ldrsh	r1, [r4, r3]
    379a:	0028      	movs	r0, r5
    379c:	f000 f842 	bl	3824 <_isatty_r>
    37a0:	2800      	cmp	r0, #0
    37a2:	d006      	beq.n	37b2 <__smakebuf_r+0x7a>
    37a4:	2203      	movs	r2, #3
    37a6:	89a3      	ldrh	r3, [r4, #12]
    37a8:	4393      	bics	r3, r2
    37aa:	001a      	movs	r2, r3
    37ac:	2301      	movs	r3, #1
    37ae:	4313      	orrs	r3, r2
    37b0:	81a3      	strh	r3, [r4, #12]
    37b2:	89a0      	ldrh	r0, [r4, #12]
    37b4:	4338      	orrs	r0, r7
    37b6:	81a0      	strh	r0, [r4, #12]
    37b8:	e7cb      	b.n	3752 <__smakebuf_r+0x1a>
    37ba:	46c0      	nop			; (mov r8, r8)
    37bc:	00002b91 	.word	0x00002b91

000037c0 <memchr>:
    37c0:	b2c9      	uxtb	r1, r1
    37c2:	1882      	adds	r2, r0, r2
    37c4:	4290      	cmp	r0, r2
    37c6:	d101      	bne.n	37cc <memchr+0xc>
    37c8:	2000      	movs	r0, #0
    37ca:	4770      	bx	lr
    37cc:	7803      	ldrb	r3, [r0, #0]
    37ce:	428b      	cmp	r3, r1
    37d0:	d0fb      	beq.n	37ca <memchr+0xa>
    37d2:	3001      	adds	r0, #1
    37d4:	e7f6      	b.n	37c4 <memchr+0x4>
	...

000037d8 <_read_r>:
    37d8:	b570      	push	{r4, r5, r6, lr}
    37da:	0005      	movs	r5, r0
    37dc:	0008      	movs	r0, r1
    37de:	0011      	movs	r1, r2
    37e0:	2200      	movs	r2, #0
    37e2:	4c06      	ldr	r4, [pc, #24]	; (37fc <_read_r+0x24>)
    37e4:	6022      	str	r2, [r4, #0]
    37e6:	001a      	movs	r2, r3
    37e8:	f000 f82e 	bl	3848 <_read>
    37ec:	1c43      	adds	r3, r0, #1
    37ee:	d103      	bne.n	37f8 <_read_r+0x20>
    37f0:	6823      	ldr	r3, [r4, #0]
    37f2:	2b00      	cmp	r3, #0
    37f4:	d000      	beq.n	37f8 <_read_r+0x20>
    37f6:	602b      	str	r3, [r5, #0]
    37f8:	bd70      	pop	{r4, r5, r6, pc}
    37fa:	46c0      	nop			; (mov r8, r8)
    37fc:	2000061c 	.word	0x2000061c

00003800 <_fstat_r>:
    3800:	2300      	movs	r3, #0
    3802:	b570      	push	{r4, r5, r6, lr}
    3804:	4c06      	ldr	r4, [pc, #24]	; (3820 <_fstat_r+0x20>)
    3806:	0005      	movs	r5, r0
    3808:	0008      	movs	r0, r1
    380a:	0011      	movs	r1, r2
    380c:	6023      	str	r3, [r4, #0]
    380e:	f7fd f818 	bl	842 <_fstat>
    3812:	1c43      	adds	r3, r0, #1
    3814:	d103      	bne.n	381e <_fstat_r+0x1e>
    3816:	6823      	ldr	r3, [r4, #0]
    3818:	2b00      	cmp	r3, #0
    381a:	d000      	beq.n	381e <_fstat_r+0x1e>
    381c:	602b      	str	r3, [r5, #0]
    381e:	bd70      	pop	{r4, r5, r6, pc}
    3820:	2000061c 	.word	0x2000061c

00003824 <_isatty_r>:
    3824:	2300      	movs	r3, #0
    3826:	b570      	push	{r4, r5, r6, lr}
    3828:	4c06      	ldr	r4, [pc, #24]	; (3844 <_isatty_r+0x20>)
    382a:	0005      	movs	r5, r0
    382c:	0008      	movs	r0, r1
    382e:	6023      	str	r3, [r4, #0]
    3830:	f7fd f80c 	bl	84c <_isatty>
    3834:	1c43      	adds	r3, r0, #1
    3836:	d103      	bne.n	3840 <_isatty_r+0x1c>
    3838:	6823      	ldr	r3, [r4, #0]
    383a:	2b00      	cmp	r3, #0
    383c:	d000      	beq.n	3840 <_isatty_r+0x1c>
    383e:	602b      	str	r3, [r5, #0]
    3840:	bd70      	pop	{r4, r5, r6, pc}
    3842:	46c0      	nop			; (mov r8, r8)
    3844:	2000061c 	.word	0x2000061c

00003848 <_read>:
    3848:	2258      	movs	r2, #88	; 0x58
    384a:	2001      	movs	r0, #1
    384c:	4b01      	ldr	r3, [pc, #4]	; (3854 <_read+0xc>)
    384e:	4240      	negs	r0, r0
    3850:	601a      	str	r2, [r3, #0]
    3852:	4770      	bx	lr
    3854:	2000061c 	.word	0x2000061c

00003858 <_write>:
    3858:	2258      	movs	r2, #88	; 0x58
    385a:	2001      	movs	r0, #1
    385c:	4b01      	ldr	r3, [pc, #4]	; (3864 <_write+0xc>)
    385e:	4240      	negs	r0, r0
    3860:	601a      	str	r2, [r3, #0]
    3862:	4770      	bx	lr
    3864:	2000061c 	.word	0x2000061c
    3868:	74697845 	.word	0x74697845
    386c:	20676e69 	.word	0x20676e69
    3870:	68746977 	.word	0x68746977
    3874:	61747320 	.word	0x61747320
    3878:	20737574 	.word	0x20737574
    387c:	0a2e6425 	.word	0x0a2e6425
    3880:	00000000 	.word	0x00000000

00003884 <_usb_ep_cfgs>:
    3884:	20000534 00000000 00000040 2000052c     4.. ....@...,.. 
    3894:	00000000 00000008 00000000 00000000     ................
    38a4:	00000000                                ....

000038a8 <keyboard_report_desc>:
    38a8:	06090105 070501a1 e729e019 01250015     ..........)...%.
    38b8:	08950175 01810281 65290019 65250015     u.........)e..%e
    38c8:	06950875 08050081 05290119 01250015     u.........)...%.
    38d8:	05950175 03950291 00c00191              u...........

000038e4 <pageSize>:
    38e4:	00000008 00000010 00000020 00000040     ........ ...@...
    38f4:	00000080 00000100 00000200 00000400     ................

00003904 <_global_impure_ptr>:
    3904:	20000078                                x.. 

00003908 <__sf_fake_stderr>:
	...

00003928 <__sf_fake_stdin>:
	...

00003948 <__sf_fake_stdout>:
	...
    3968:	2b302d23 6c680020 6665004c 47464567     #-0+ .hlL.efgEFG
    3978:	32313000 36353433 41393837 45444342     .0123456789ABCDE
    3988:	31300046 35343332 39383736 64636261     F.0123456789abcd
    3998:	00006665                                ef..

0000399c <_init>:
    399c:	b5f8      	push	{r3, r4, r5, r6, r7, lr}
    399e:	46c0      	nop			; (mov r8, r8)
    39a0:	bcf8      	pop	{r3, r4, r5, r6, r7}
    39a2:	bc08      	pop	{r3}
    39a4:	469e      	mov	lr, r3
    39a6:	4770      	bx	lr

000039a8 <__init_array_start>:
    39a8:	000000b5 	.word	0x000000b5

000039ac <_fini>:
    39ac:	b5f8      	push	{r3, r4, r5, r6, r7, lr}
    39ae:	46c0      	nop			; (mov r8, r8)
    39b0:	bcf8      	pop	{r3, r4, r5, r6, r7}
    39b2:	bc08      	pop	{r3}
    39b4:	469e      	mov	lr, r3
    39b6:	4770      	bx	lr

000039b8 <__fini_array_start>:
    39b8:	0000008d 	.word	0x0000008d
